ASxxxx Linker V02.00 + NoICE + sdld,  page 1.
Hexadecimal  [32-Bits]

Area                                    Addr        Size        Decimal Bytes (Attributes)
--------------------------------        ----        ----        ------- ----- ------------
CABS                                00000000    00000000 =           0. bytes (ABS,CON,CODE)

      Value  Global                              Global Defined In Module
      -----  --------------------------------   ------------------------
     0C:   00000000  l_CABS                          
     0C:   00000000  l_GSINIT1                       
     0C:   00000000  l_GSINIT5                       
     0C:   00000000  l_IABS                          
     0C:   00000000  l_ISEG                          
     0C:   00000000  l_REG_BANK_1                    
     0C:   00000000  l_REG_BANK_2                    
     0C:   00000000  l_REG_BANK_3                    
     0C:   00000000  l_RSEG                          
     0C:   00000000  l_RSEG0                         
     0C:   00000000  l_RSEG1                         
     0C:   00000000  l_XABS                          
     0C:   00000000  l__CODE                         
     0C:   00000000  s_BSEG                          
     0C:   00000000  s_CABS                          
     0C:   00000000  s_DSEG                          
     0C:   00000000  s_IABS                          
     0C:   00000000  s_ISEG                          
     0C:   00000000  s_REG_BANK_0                    
     0C:   00000000  s_RSEG                          
     0C:   00000000  s_RSEG0                         
     0C:   00000000  s_RSEG1                         
     0C:   00000000  s_XABS                          
     0C:   00000001  l_BIT_BANK                      
     0C:   00000003  l_GSFINAL                       
     0C:   00000003  l_GSINIT0                       
     0C:   00000004  l_BSEG_BYTES                    
     0C:   00000004  l_OSEG                          
     0C:   00000008  l_REG_BANK_0                    
     0C:   00000008  s_REG_BANK_1                    
     0C:   00000009  l_XINIT                         
     0C:   00000009  l_XISEG                         
     0C:   0000000A  l_GSINIT2                       
     0C:   00000010  s_REG_BANK_2                    
     0C:   00000014  s_OSEG                          
     0C:   00000018  s_REG_BANK_3                    
     0C:   00000019  l_BSEG                          
     0C:   00000020  s_BSEG_BYTES                    
     0C:   00000020  s__CODE                         
     0C:   00000022  l_GSINIT3                       
     0C:   00000024  s_BIT_BANK                      
     0C:   00000025  s_SSEG                          
     0C:   0000002A  l_GSINIT4                       
     0C:   00000057  l_GSINIT                        
     0C:   0000006D  l_PSEG                          
     0C:   00000078  l_DSEG                          
     0C:   0000008D  l_HOME                          
     0C:   000000DB  l_SSEG                          
     0C:   000000E4  l_CONST                         
     0C:   00000100  l_IRAM                          
ASxxxx Linker V02.00 + NoICE + sdld,  page 2.
Hexadecimal  [32-Bits]

Area                                    Addr        Size        Decimal Bytes (Attributes)
--------------------------------        ----        ----        ------- ----- ------------
CABS                                00000000    00000000 =           0. bytes (ABS,CON,CODE)

      Value  Global                              Global Defined In Module
      -----  --------------------------------   ------------------------
     0C:   000001CF  l_XSEG                          
     0C:   00000400  s_HOME                          
     0C:   0000048D  s_GSINIT0                       
     0C:   00000490  s_GSINIT1                       
     0C:   00000490  s_GSINIT2                       
     0C:   0000049A  s_GSINIT3                       
     0C:   000004BC  s_GSINIT4                       
     0C:   000004E6  s_GSINIT                        
     0C:   000004E6  s_GSINIT5                       
     0C:   0000053D  s_GSFINAL                       
     0C:   00000540  s_CSEG                          
     0C:   00001C08  l_CSEG                          
     0C:   00002148  s_CONST                         
     0C:   0000222C  s_XINIT                         
     0C:   0000F000  s_PSEG                          
     0C:   0000F000  s_XSEG                          
     0C:   0000F23C  s_XISEG                         

ASxxxx Linker V02.00 + NoICE + sdld,  page 3.
Hexadecimal  [32-Bits]

Area                                    Addr        Size        Decimal Bytes (Attributes)
--------------------------------        ----        ----        ------- ----- ------------
.	.ABS.                             00000000    00000000 =           0. bytes (ABS,CON)

      Value  Global                              Global Defined In Module
      -----  --------------------------------   ------------------------
           00000000  .__.ABS.                           delay
           00000080  Fboard$P0$0$0                      board
           00000080  Fboard$P0_0$0$0                    board
           00000080  Fdma$P0$0$0                        dma
           00000080  Fdma$P0_0$0$0                      dma
           00000080  Fgreen_led$P0$0$0                  green_led
           00000080  Fgreen_led$P0_0$0$0                green_led
           00000080  Fradio_mac$P0$0$0                  radio_mac
           00000080  Fradio_mac$P0_0$0$0                radio_mac
           00000080  Fradio_queue$P0$0$0                radio_queue
           00000080  Fradio_queue$P0_0$0$0              radio_queue
           00000080  Fradio_registers$P0$0$0            radio_registers
           00000080  Fradio_registers$P0_0$0$0          radio_registers
           00000080  Fradio_send_test_with_usb_com$P0   radio_send_test_with_usb_com
           00000080  Fradio_send_test_with_usb_com$P0   radio_send_test_with_usb_com
           00000080  Frandom$P0$0$0                     random
           00000080  Frandom$P0_0$0$0                   random
           00000080  Frandom_from_sernum$P0$0$0         random_from_sernum
           00000080  Frandom_from_sernum$P0_0$0$0       random_from_sernum
           00000080  Ftime$P0$0$0                       time
           00000080  Ftime$P0_0$0$0                     time
           00000080  Fusb$P0$0$0                        usb
           00000080  Fusb$P0_0$0$0                      usb
           00000080  Fusb_cdc_acm$P0$0$0                usb_cdc_acm
           00000080  Fusb_cdc_acm$P0_0$0$0              usb_cdc_acm
           00000081  Fboard$P0_1$0$0                    board
           00000081  Fboard$SP$0$0                      board
           00000081  Fdma$P0_1$0$0                      dma
           00000081  Fdma$SP$0$0                        dma
           00000081  Fgreen_led$P0_1$0$0                green_led
           00000081  Fgreen_led$SP$0$0                  green_led
           00000081  Fradio_mac$P0_1$0$0                radio_mac
           00000081  Fradio_mac$SP$0$0                  radio_mac
           00000081  Fradio_queue$P0_1$0$0              radio_queue
           00000081  Fradio_queue$SP$0$0                radio_queue
           00000081  Fradio_registers$P0_1$0$0          radio_registers
           00000081  Fradio_registers$SP$0$0            radio_registers
           00000081  Fradio_send_test_with_usb_com$P0   radio_send_test_with_usb_com
           00000081  Fradio_send_test_with_usb_com$SP   radio_send_test_with_usb_com
           00000081  Frandom$P0_1$0$0                   random
           00000081  Frandom$SP$0$0                     random
           00000081  Frandom_from_sernum$P0_1$0$0       random_from_sernum
           00000081  Frandom_from_sernum$SP$0$0         random_from_sernum
           00000081  Ftime$P0_1$0$0                     time
           00000081  Ftime$SP$0$0                       time
           00000081  Fusb$P0_1$0$0                      usb
           00000081  Fusb$SP$0$0                        usb
           00000081  Fusb_cdc_acm$P0_1$0$0              usb_cdc_acm
           00000081  Fusb_cdc_acm$SP$0$0                usb_cdc_acm
           00000082  Fboard$DPL0$0$0                    board
ASxxxx Linker V02.00 + NoICE + sdld,  page 4.
Hexadecimal  [32-Bits]

Area                                    Addr        Size        Decimal Bytes (Attributes)
--------------------------------        ----        ----        ------- ----- ------------
.	.ABS.                             00000000    00000000 =           0. bytes (ABS,CON)

      Value  Global                              Global Defined In Module
      -----  --------------------------------   ------------------------
           00000082  Fboard$P0_2$0$0                    board
           00000082  Fdma$DPL0$0$0                      dma
           00000082  Fdma$P0_2$0$0                      dma
           00000082  Fgreen_led$DPL0$0$0                green_led
           00000082  Fgreen_led$P0_2$0$0                green_led
           00000082  Fradio_mac$DPL0$0$0                radio_mac
           00000082  Fradio_mac$P0_2$0$0                radio_mac
           00000082  Fradio_queue$DPL0$0$0              radio_queue
           00000082  Fradio_queue$P0_2$0$0              radio_queue
           00000082  Fradio_registers$DPL0$0$0          radio_registers
           00000082  Fradio_registers$P0_2$0$0          radio_registers
           00000082  Fradio_send_test_with_usb_com$DP   radio_send_test_with_usb_com
           00000082  Fradio_send_test_with_usb_com$P0   radio_send_test_with_usb_com
           00000082  Frandom$DPL0$0$0                   random
           00000082  Frandom$P0_2$0$0                   random
           00000082  Frandom_from_sernum$DPL0$0$0       random_from_sernum
           00000082  Frandom_from_sernum$P0_2$0$0       random_from_sernum
           00000082  Ftime$DPL0$0$0                     time
           00000082  Ftime$P0_2$0$0                     time
           00000082  Fusb$DPL0$0$0                      usb
           00000082  Fusb$P0_2$0$0                      usb
           00000082  Fusb_cdc_acm$DPL0$0$0              usb_cdc_acm
           00000082  Fusb_cdc_acm$P0_2$0$0              usb_cdc_acm
           00000083  Fboard$DPH0$0$0                    board
           00000083  Fboard$P0_3$0$0                    board
           00000083  Fdma$DPH0$0$0                      dma
           00000083  Fdma$P0_3$0$0                      dma
           00000083  Fgreen_led$DPH0$0$0                green_led
           00000083  Fgreen_led$P0_3$0$0                green_led
           00000083  Fradio_mac$DPH0$0$0                radio_mac
           00000083  Fradio_mac$P0_3$0$0                radio_mac
           00000083  Fradio_queue$DPH0$0$0              radio_queue
           00000083  Fradio_queue$P0_3$0$0              radio_queue
           00000083  Fradio_registers$DPH0$0$0          radio_registers
           00000083  Fradio_registers$P0_3$0$0          radio_registers
           00000083  Fradio_send_test_with_usb_com$DP   radio_send_test_with_usb_com
           00000083  Fradio_send_test_with_usb_com$P0   radio_send_test_with_usb_com
           00000083  Frandom$DPH0$0$0                   random
           00000083  Frandom$P0_3$0$0                   random
           00000083  Frandom_from_sernum$DPH0$0$0       random_from_sernum
           00000083  Frandom_from_sernum$P0_3$0$0       random_from_sernum
           00000083  Ftime$DPH0$0$0                     time
           00000083  Ftime$P0_3$0$0                     time
           00000083  Fusb$DPH0$0$0                      usb
           00000083  Fusb$P0_3$0$0                      usb
           00000083  Fusb_cdc_acm$DPH0$0$0              usb_cdc_acm
           00000083  Fusb_cdc_acm$P0_3$0$0              usb_cdc_acm
           00000084  Fboard$DPL1$0$0                    board
           00000084  Fboard$P0_4$0$0                    board
           00000084  Fdma$DPL1$0$0                      dma
           00000084  Fdma$P0_4$0$0                      dma
ASxxxx Linker V02.00 + NoICE + sdld,  page 5.
Hexadecimal  [32-Bits]

Area                                    Addr        Size        Decimal Bytes (Attributes)
--------------------------------        ----        ----        ------- ----- ------------
.	.ABS.                             00000000    00000000 =           0. bytes (ABS,CON)

      Value  Global                              Global Defined In Module
      -----  --------------------------------   ------------------------
           00000084  Fgreen_led$DPL1$0$0                green_led
           00000084  Fgreen_led$P0_4$0$0                green_led
           00000084  Fradio_mac$DPL1$0$0                radio_mac
           00000084  Fradio_mac$P0_4$0$0                radio_mac
           00000084  Fradio_queue$DPL1$0$0              radio_queue
           00000084  Fradio_queue$P0_4$0$0              radio_queue
           00000084  Fradio_registers$DPL1$0$0          radio_registers
           00000084  Fradio_registers$P0_4$0$0          radio_registers
           00000084  Fradio_send_test_with_usb_com$DP   radio_send_test_with_usb_com
           00000084  Fradio_send_test_with_usb_com$P0   radio_send_test_with_usb_com
           00000084  Frandom$DPL1$0$0                   random
           00000084  Frandom$P0_4$0$0                   random
           00000084  Frandom_from_sernum$DPL1$0$0       random_from_sernum
           00000084  Frandom_from_sernum$P0_4$0$0       random_from_sernum
           00000084  Ftime$DPL1$0$0                     time
           00000084  Ftime$P0_4$0$0                     time
           00000084  Fusb$DPL1$0$0                      usb
           00000084  Fusb$P0_4$0$0                      usb
           00000084  Fusb_cdc_acm$DPL1$0$0              usb_cdc_acm
           00000084  Fusb_cdc_acm$P0_4$0$0              usb_cdc_acm
           00000085  Fboard$DPH1$0$0                    board
           00000085  Fboard$P0_5$0$0                    board
           00000085  Fdma$DPH1$0$0                      dma
           00000085  Fdma$P0_5$0$0                      dma
           00000085  Fgreen_led$DPH1$0$0                green_led
           00000085  Fgreen_led$P0_5$0$0                green_led
           00000085  Fradio_mac$DPH1$0$0                radio_mac
           00000085  Fradio_mac$P0_5$0$0                radio_mac
           00000085  Fradio_queue$DPH1$0$0              radio_queue
           00000085  Fradio_queue$P0_5$0$0              radio_queue
           00000085  Fradio_registers$DPH1$0$0          radio_registers
           00000085  Fradio_registers$P0_5$0$0          radio_registers
           00000085  Fradio_send_test_with_usb_com$DP   radio_send_test_with_usb_com
           00000085  Fradio_send_test_with_usb_com$P0   radio_send_test_with_usb_com
           00000085  Frandom$DPH1$0$0                   random
           00000085  Frandom$P0_5$0$0                   random
           00000085  Frandom_from_sernum$DPH1$0$0       random_from_sernum
           00000085  Frandom_from_sernum$P0_5$0$0       random_from_sernum
           00000085  Ftime$DPH1$0$0                     time
           00000085  Ftime$P0_5$0$0                     time
           00000085  Fusb$DPH1$0$0                      usb
           00000085  Fusb$P0_5$0$0                      usb
           00000085  Fusb_cdc_acm$DPH1$0$0              usb_cdc_acm
           00000085  Fusb_cdc_acm$P0_5$0$0              usb_cdc_acm
           00000086  Fboard$P0_6$0$0                    board
           00000086  Fboard$U0CSR$0$0                   board
           00000086  Fdma$P0_6$0$0                      dma
           00000086  Fdma$U0CSR$0$0                     dma
           00000086  Fgreen_led$P0_6$0$0                green_led
           00000086  Fgreen_led$U0CSR$0$0               green_led
           00000086  Fradio_mac$P0_6$0$0                radio_mac
ASxxxx Linker V02.00 + NoICE + sdld,  page 6.
Hexadecimal  [32-Bits]

Area                                    Addr        Size        Decimal Bytes (Attributes)
--------------------------------        ----        ----        ------- ----- ------------
.	.ABS.                             00000000    00000000 =           0. bytes (ABS,CON)

      Value  Global                              Global Defined In Module
      -----  --------------------------------   ------------------------
           00000086  Fradio_mac$U0CSR$0$0               radio_mac
           00000086  Fradio_queue$P0_6$0$0              radio_queue
           00000086  Fradio_queue$U0CSR$0$0             radio_queue
           00000086  Fradio_registers$P0_6$0$0          radio_registers
           00000086  Fradio_registers$U0CSR$0$0         radio_registers
           00000086  Fradio_send_test_with_usb_com$P0   radio_send_test_with_usb_com
           00000086  Fradio_send_test_with_usb_com$U0   radio_send_test_with_usb_com
           00000086  Frandom$P0_6$0$0                   random
           00000086  Frandom$U0CSR$0$0                  random
           00000086  Frandom_from_sernum$P0_6$0$0       random_from_sernum
           00000086  Frandom_from_sernum$U0CSR$0$0      random_from_sernum
           00000086  Ftime$P0_6$0$0                     time
           00000086  Ftime$U0CSR$0$0                    time
           00000086  Fusb$P0_6$0$0                      usb
           00000086  Fusb$U0CSR$0$0                     usb
           00000086  Fusb_cdc_acm$P0_6$0$0              usb_cdc_acm
           00000086  Fusb_cdc_acm$U0CSR$0$0             usb_cdc_acm
           00000087  Fboard$P0_7$0$0                    board
           00000087  Fboard$PCON$0$0                    board
           00000087  Fdma$P0_7$0$0                      dma
           00000087  Fdma$PCON$0$0                      dma
           00000087  Fgreen_led$P0_7$0$0                green_led
           00000087  Fgreen_led$PCON$0$0                green_led
           00000087  Fradio_mac$P0_7$0$0                radio_mac
           00000087  Fradio_mac$PCON$0$0                radio_mac
           00000087  Fradio_queue$P0_7$0$0              radio_queue
           00000087  Fradio_queue$PCON$0$0              radio_queue
           00000087  Fradio_registers$P0_7$0$0          radio_registers
           00000087  Fradio_registers$PCON$0$0          radio_registers
           00000087  Fradio_send_test_with_usb_com$P0   radio_send_test_with_usb_com
           00000087  Fradio_send_test_with_usb_com$PC   radio_send_test_with_usb_com
           00000087  Frandom$P0_7$0$0                   random
           00000087  Frandom$PCON$0$0                   random
           00000087  Frandom_from_sernum$P0_7$0$0       random_from_sernum
           00000087  Frandom_from_sernum$PCON$0$0       random_from_sernum
           00000087  Ftime$P0_7$0$0                     time
           00000087  Ftime$PCON$0$0                     time
           00000087  Fusb$P0_7$0$0                      usb
           00000087  Fusb$PCON$0$0                      usb
           00000087  Fusb_cdc_acm$P0_7$0$0              usb_cdc_acm
           00000087  Fusb_cdc_acm$PCON$0$0              usb_cdc_acm
           00000088  Fboard$TCON$0$0                    board
           00000088  Fboard$_TCON_0$0$0                 board
           00000088  Fdma$TCON$0$0                      dma
           00000088  Fdma$_TCON_0$0$0                   dma
           00000088  Fgreen_led$TCON$0$0                green_led
           00000088  Fgreen_led$_TCON_0$0$0             green_led
           00000088  Fradio_mac$TCON$0$0                radio_mac
           00000088  Fradio_mac$_TCON_0$0$0             radio_mac
           00000088  Fradio_queue$TCON$0$0              radio_queue
           00000088  Fradio_queue$_TCON_0$0$0           radio_queue
ASxxxx Linker V02.00 + NoICE + sdld,  page 7.
Hexadecimal  [32-Bits]

Area                                    Addr        Size        Decimal Bytes (Attributes)
--------------------------------        ----        ----        ------- ----- ------------
.	.ABS.                             00000000    00000000 =           0. bytes (ABS,CON)

      Value  Global                              Global Defined In Module
      -----  --------------------------------   ------------------------
           00000088  Fradio_registers$TCON$0$0          radio_registers
           00000088  Fradio_registers$_TCON_0$0$0       radio_registers
           00000088  Fradio_send_test_with_usb_com$TC   radio_send_test_with_usb_com
           00000088  Fradio_send_test_with_usb_com$_T   radio_send_test_with_usb_com
           00000088  Frandom$TCON$0$0                   random
           00000088  Frandom$_TCON_0$0$0                random
           00000088  Frandom_from_sernum$TCON$0$0       random_from_sernum
           00000088  Frandom_from_sernum$_TCON_0$0$0    random_from_sernum
           00000088  Ftime$TCON$0$0                     time
           00000088  Ftime$_TCON_0$0$0                  time
           00000088  Fusb$TCON$0$0                      usb
           00000088  Fusb$_TCON_0$0$0                   usb
           00000088  Fusb_cdc_acm$TCON$0$0              usb_cdc_acm
           00000088  Fusb_cdc_acm$_TCON_0$0$0           usb_cdc_acm
           00000089  Fboard$P0IFG$0$0                   board
           00000089  Fboard$RFTXRXIF$0$0                board
           00000089  Fdma$P0IFG$0$0                     dma
           00000089  Fdma$RFTXRXIF$0$0                  dma
           00000089  Fgreen_led$P0IFG$0$0               green_led
           00000089  Fgreen_led$RFTXRXIF$0$0            green_led
           00000089  Fradio_mac$P0IFG$0$0               radio_mac
           00000089  Fradio_mac$RFTXRXIF$0$0            radio_mac
           00000089  Fradio_queue$P0IFG$0$0             radio_queue
           00000089  Fradio_queue$RFTXRXIF$0$0          radio_queue
           00000089  Fradio_registers$P0IFG$0$0         radio_registers
           00000089  Fradio_registers$RFTXRXIF$0$0      radio_registers
           00000089  Fradio_send_test_with_usb_com$P0   radio_send_test_with_usb_com
           00000089  Fradio_send_test_with_usb_com$RF   radio_send_test_with_usb_com
           00000089  Frandom$P0IFG$0$0                  random
           00000089  Frandom$RFTXRXIF$0$0               random
           00000089  Frandom_from_sernum$P0IFG$0$0      random_from_sernum
           00000089  Frandom_from_sernum$RFTXRXIF$0$0   random_from_sernum
           00000089  Ftime$P0IFG$0$0                    time
           00000089  Ftime$RFTXRXIF$0$0                 time
           00000089  Fusb$P0IFG$0$0                     usb
           00000089  Fusb$RFTXRXIF$0$0                  usb
           00000089  Fusb_cdc_acm$P0IFG$0$0             usb_cdc_acm
           00000089  Fusb_cdc_acm$RFTXRXIF$0$0          usb_cdc_acm
           0000008A  Fboard$P1IFG$0$0                   board
           0000008A  Fboard$_TCON_2$0$0                 board
           0000008A  Fdma$P1IFG$0$0                     dma
           0000008A  Fdma$_TCON_2$0$0                   dma
           0000008A  Fgreen_led$P1IFG$0$0               green_led
           0000008A  Fgreen_led$_TCON_2$0$0             green_led
           0000008A  Fradio_mac$P1IFG$0$0               radio_mac
           0000008A  Fradio_mac$_TCON_2$0$0             radio_mac
           0000008A  Fradio_queue$P1IFG$0$0             radio_queue
           0000008A  Fradio_queue$_TCON_2$0$0           radio_queue
           0000008A  Fradio_registers$P1IFG$0$0         radio_registers
           0000008A  Fradio_registers$_TCON_2$0$0       radio_registers
           0000008A  Fradio_send_test_with_usb_com$P1   radio_send_test_with_usb_com
ASxxxx Linker V02.00 + NoICE + sdld,  page 8.
Hexadecimal  [32-Bits]

Area                                    Addr        Size        Decimal Bytes (Attributes)
--------------------------------        ----        ----        ------- ----- ------------
.	.ABS.                             00000000    00000000 =           0. bytes (ABS,CON)

      Value  Global                              Global Defined In Module
      -----  --------------------------------   ------------------------
           0000008A  Fradio_send_test_with_usb_com$_T   radio_send_test_with_usb_com
           0000008A  Frandom$P1IFG$0$0                  random
           0000008A  Frandom$_TCON_2$0$0                random
           0000008A  Frandom_from_sernum$P1IFG$0$0      random_from_sernum
           0000008A  Frandom_from_sernum$_TCON_2$0$0    random_from_sernum
           0000008A  Ftime$P1IFG$0$0                    time
           0000008A  Ftime$_TCON_2$0$0                  time
           0000008A  Fusb$P1IFG$0$0                     usb
           0000008A  Fusb$_TCON_2$0$0                   usb
           0000008A  Fusb_cdc_acm$P1IFG$0$0             usb_cdc_acm
           0000008A  Fusb_cdc_acm$_TCON_2$0$0           usb_cdc_acm
           0000008B  Fboard$P2IFG$0$0                   board
           0000008B  Fboard$URX0IF$0$0                  board
           0000008B  Fdma$P2IFG$0$0                     dma
           0000008B  Fdma$URX0IF$0$0                    dma
           0000008B  Fgreen_led$P2IFG$0$0               green_led
           0000008B  Fgreen_led$URX0IF$0$0              green_led
           0000008B  Fradio_mac$P2IFG$0$0               radio_mac
           0000008B  Fradio_mac$URX0IF$0$0              radio_mac
           0000008B  Fradio_queue$P2IFG$0$0             radio_queue
           0000008B  Fradio_queue$URX0IF$0$0            radio_queue
           0000008B  Fradio_registers$P2IFG$0$0         radio_registers
           0000008B  Fradio_registers$URX0IF$0$0        radio_registers
           0000008B  Fradio_send_test_with_usb_com$P2   radio_send_test_with_usb_com
           0000008B  Fradio_send_test_with_usb_com$UR   radio_send_test_with_usb_com
           0000008B  Frandom$P2IFG$0$0                  random
           0000008B  Frandom$URX0IF$0$0                 random
           0000008B  Frandom_from_sernum$P2IFG$0$0      random_from_sernum
           0000008B  Frandom_from_sernum$URX0IF$0$0     random_from_sernum
           0000008B  Ftime$P2IFG$0$0                    time
           0000008B  Ftime$URX0IF$0$0                   time
           0000008B  Fusb$P2IFG$0$0                     usb
           0000008B  Fusb$URX0IF$0$0                    usb
           0000008B  Fusb_cdc_acm$P2IFG$0$0             usb_cdc_acm
           0000008B  Fusb_cdc_acm$URX0IF$0$0            usb_cdc_acm
           0000008C  Fboard$PICTL$0$0                   board
           0000008C  Fboard$_TCON_4$0$0                 board
           0000008C  Fdma$PICTL$0$0                     dma
           0000008C  Fdma$_TCON_4$0$0                   dma
           0000008C  Fgreen_led$PICTL$0$0               green_led
           0000008C  Fgreen_led$_TCON_4$0$0             green_led
           0000008C  Fradio_mac$PICTL$0$0               radio_mac
           0000008C  Fradio_mac$_TCON_4$0$0             radio_mac
           0000008C  Fradio_queue$PICTL$0$0             radio_queue
           0000008C  Fradio_queue$_TCON_4$0$0           radio_queue
           0000008C  Fradio_registers$PICTL$0$0         radio_registers
           0000008C  Fradio_registers$_TCON_4$0$0       radio_registers
           0000008C  Fradio_send_test_with_usb_com$PI   radio_send_test_with_usb_com
           0000008C  Fradio_send_test_with_usb_com$_T   radio_send_test_with_usb_com
           0000008C  Frandom$PICTL$0$0                  random
           0000008C  Frandom$_TCON_4$0$0                random
ASxxxx Linker V02.00 + NoICE + sdld,  page 9.
Hexadecimal  [32-Bits]

Area                                    Addr        Size        Decimal Bytes (Attributes)
--------------------------------        ----        ----        ------- ----- ------------
.	.ABS.                             00000000    00000000 =           0. bytes (ABS,CON)

      Value  Global                              Global Defined In Module
      -----  --------------------------------   ------------------------
           0000008C  Frandom_from_sernum$PICTL$0$0      random_from_sernum
           0000008C  Frandom_from_sernum$_TCON_4$0$0    random_from_sernum
           0000008C  Ftime$PICTL$0$0                    time
           0000008C  Ftime$_TCON_4$0$0                  time
           0000008C  Fusb$PICTL$0$0                     usb
           0000008C  Fusb$_TCON_4$0$0                   usb
           0000008C  Fusb_cdc_acm$PICTL$0$0             usb_cdc_acm
           0000008C  Fusb_cdc_acm$_TCON_4$0$0           usb_cdc_acm
           0000008D  Fboard$ADCIF$0$0                   board
           0000008D  Fboard$P1IEN$0$0                   board
           0000008D  Fdma$ADCIF$0$0                     dma
           0000008D  Fdma$P1IEN$0$0                     dma
           0000008D  Fgreen_led$ADCIF$0$0               green_led
           0000008D  Fgreen_led$P1IEN$0$0               green_led
           0000008D  Fradio_mac$ADCIF$0$0               radio_mac
           0000008D  Fradio_mac$P1IEN$0$0               radio_mac
           0000008D  Fradio_queue$ADCIF$0$0             radio_queue
           0000008D  Fradio_queue$P1IEN$0$0             radio_queue
           0000008D  Fradio_registers$ADCIF$0$0         radio_registers
           0000008D  Fradio_registers$P1IEN$0$0         radio_registers
           0000008D  Fradio_send_test_with_usb_com$AD   radio_send_test_with_usb_com
           0000008D  Fradio_send_test_with_usb_com$P1   radio_send_test_with_usb_com
           0000008D  Frandom$ADCIF$0$0                  random
           0000008D  Frandom$P1IEN$0$0                  random
           0000008D  Frandom_from_sernum$ADCIF$0$0      random_from_sernum
           0000008D  Frandom_from_sernum$P1IEN$0$0      random_from_sernum
           0000008D  Ftime$ADCIF$0$0                    time
           0000008D  Ftime$P1IEN$0$0                    time
           0000008D  Fusb$ADCIF$0$0                     usb
           0000008D  Fusb$P1IEN$0$0                     usb
           0000008D  Fusb_cdc_acm$ADCIF$0$0             usb_cdc_acm
           0000008D  Fusb_cdc_acm$P1IEN$0$0             usb_cdc_acm
           0000008E  Fboard$_TCON_6$0$0                 board
           0000008E  Fdma$_TCON_6$0$0                   dma
           0000008E  Fgreen_led$_TCON_6$0$0             green_led
           0000008E  Fradio_mac$_TCON_6$0$0             radio_mac
           0000008E  Fradio_queue$_TCON_6$0$0           radio_queue
           0000008E  Fradio_registers$_TCON_6$0$0       radio_registers
           0000008E  Fradio_send_test_with_usb_com$_T   radio_send_test_with_usb_com
           0000008E  Frandom$_TCON_6$0$0                random
           0000008E  Frandom_from_sernum$_TCON_6$0$0    random_from_sernum
           0000008E  Ftime$_TCON_6$0$0                  time
           0000008E  Fusb$_TCON_6$0$0                   usb
           0000008E  Fusb_cdc_acm$_TCON_6$0$0           usb_cdc_acm
           0000008F  Fboard$P0INP$0$0                   board
           0000008F  Fboard$URX1IF$0$0                  board
           0000008F  Fdma$P0INP$0$0                     dma
           0000008F  Fdma$URX1IF$0$0                    dma
           0000008F  Fgreen_led$P0INP$0$0               green_led
           0000008F  Fgreen_led$URX1IF$0$0              green_led
           0000008F  Fradio_mac$P0INP$0$0               radio_mac
ASxxxx Linker V02.00 + NoICE + sdld,  page 10.
Hexadecimal  [32-Bits]

Area                                    Addr        Size        Decimal Bytes (Attributes)
--------------------------------        ----        ----        ------- ----- ------------
.	.ABS.                             00000000    00000000 =           0. bytes (ABS,CON)

      Value  Global                              Global Defined In Module
      -----  --------------------------------   ------------------------
           0000008F  Fradio_mac$URX1IF$0$0              radio_mac
           0000008F  Fradio_queue$P0INP$0$0             radio_queue
           0000008F  Fradio_queue$URX1IF$0$0            radio_queue
           0000008F  Fradio_registers$P0INP$0$0         radio_registers
           0000008F  Fradio_registers$URX1IF$0$0        radio_registers
           0000008F  Fradio_send_test_with_usb_com$P0   radio_send_test_with_usb_com
           0000008F  Fradio_send_test_with_usb_com$UR   radio_send_test_with_usb_com
           0000008F  Frandom$P0INP$0$0                  random
           0000008F  Frandom$URX1IF$0$0                 random
           0000008F  Frandom_from_sernum$P0INP$0$0      random_from_sernum
           0000008F  Frandom_from_sernum$URX1IF$0$0     random_from_sernum
           0000008F  Ftime$P0INP$0$0                    time
           0000008F  Ftime$URX1IF$0$0                   time
           0000008F  Fusb$P0INP$0$0                     usb
           0000008F  Fusb$URX1IF$0$0                    usb
           0000008F  Fusb_cdc_acm$P0INP$0$0             usb_cdc_acm
           0000008F  Fusb_cdc_acm$URX1IF$0$0            usb_cdc_acm
           00000090  Fboard$P1$0$0                      board
           00000090  Fboard$P1_0$0$0                    board
           00000090  Fdma$P1$0$0                        dma
           00000090  Fdma$P1_0$0$0                      dma
           00000090  Fgreen_led$P1$0$0                  green_led
           00000090  Fgreen_led$P1_0$0$0                green_led
           00000090  Fradio_mac$P1$0$0                  radio_mac
           00000090  Fradio_mac$P1_0$0$0                radio_mac
           00000090  Fradio_queue$P1$0$0                radio_queue
           00000090  Fradio_queue$P1_0$0$0              radio_queue
           00000090  Fradio_registers$P1$0$0            radio_registers
           00000090  Fradio_registers$P1_0$0$0          radio_registers
           00000090  Fradio_send_test_with_usb_com$P1   radio_send_test_with_usb_com
           00000090  Fradio_send_test_with_usb_com$P1   radio_send_test_with_usb_com
           00000090  Frandom$P1$0$0                     random
           00000090  Frandom$P1_0$0$0                   random
           00000090  Frandom_from_sernum$P1$0$0         random_from_sernum
           00000090  Frandom_from_sernum$P1_0$0$0       random_from_sernum
           00000090  Ftime$P1$0$0                       time
           00000090  Ftime$P1_0$0$0                     time
           00000090  Fusb$P1$0$0                        usb
           00000090  Fusb$P1_0$0$0                      usb
           00000090  Fusb_cdc_acm$P1$0$0                usb_cdc_acm
           00000090  Fusb_cdc_acm$P1_0$0$0              usb_cdc_acm
           00000091  Fboard$P1_1$0$0                    board
           00000091  Fboard$RFIM$0$0                    board
           00000091  Fdma$P1_1$0$0                      dma
           00000091  Fdma$RFIM$0$0                      dma
           00000091  Fgreen_led$P1_1$0$0                green_led
           00000091  Fgreen_led$RFIM$0$0                green_led
           00000091  Fradio_mac$P1_1$0$0                radio_mac
           00000091  Fradio_mac$RFIM$0$0                radio_mac
           00000091  Fradio_queue$P1_1$0$0              radio_queue
           00000091  Fradio_queue$RFIM$0$0              radio_queue
ASxxxx Linker V02.00 + NoICE + sdld,  page 11.
Hexadecimal  [32-Bits]

Area                                    Addr        Size        Decimal Bytes (Attributes)
--------------------------------        ----        ----        ------- ----- ------------
.	.ABS.                             00000000    00000000 =           0. bytes (ABS,CON)

      Value  Global                              Global Defined In Module
      -----  --------------------------------   ------------------------
           00000091  Fradio_registers$P1_1$0$0          radio_registers
           00000091  Fradio_registers$RFIM$0$0          radio_registers
           00000091  Fradio_send_test_with_usb_com$P1   radio_send_test_with_usb_com
           00000091  Fradio_send_test_with_usb_com$RF   radio_send_test_with_usb_com
           00000091  Frandom$P1_1$0$0                   random
           00000091  Frandom$RFIM$0$0                   random
           00000091  Frandom_from_sernum$P1_1$0$0       random_from_sernum
           00000091  Frandom_from_sernum$RFIM$0$0       random_from_sernum
           00000091  Ftime$P1_1$0$0                     time
           00000091  Ftime$RFIM$0$0                     time
           00000091  Fusb$P1_1$0$0                      usb
           00000091  Fusb$RFIM$0$0                      usb
           00000091  Fusb_cdc_acm$P1_1$0$0              usb_cdc_acm
           00000091  Fusb_cdc_acm$RFIM$0$0              usb_cdc_acm
           00000092  Fboard$DPS$0$0                     board
           00000092  Fboard$P1_2$0$0                    board
           00000092  Fdma$DPS$0$0                       dma
           00000092  Fdma$P1_2$0$0                      dma
           00000092  Fgreen_led$DPS$0$0                 green_led
           00000092  Fgreen_led$P1_2$0$0                green_led
           00000092  Fradio_mac$DPS$0$0                 radio_mac
           00000092  Fradio_mac$P1_2$0$0                radio_mac
           00000092  Fradio_queue$DPS$0$0               radio_queue
           00000092  Fradio_queue$P1_2$0$0              radio_queue
           00000092  Fradio_registers$DPS$0$0           radio_registers
           00000092  Fradio_registers$P1_2$0$0          radio_registers
           00000092  Fradio_send_test_with_usb_com$DP   radio_send_test_with_usb_com
           00000092  Fradio_send_test_with_usb_com$P1   radio_send_test_with_usb_com
           00000092  Frandom$DPS$0$0                    random
           00000092  Frandom$P1_2$0$0                   random
           00000092  Frandom_from_sernum$DPS$0$0        random_from_sernum
           00000092  Frandom_from_sernum$P1_2$0$0       random_from_sernum
           00000092  Ftime$DPS$0$0                      time
           00000092  Ftime$P1_2$0$0                     time
           00000092  Fusb$DPS$0$0                       usb
           00000092  Fusb$P1_2$0$0                      usb
           00000092  Fusb_cdc_acm$DPS$0$0               usb_cdc_acm
           00000092  Fusb_cdc_acm$P1_2$0$0              usb_cdc_acm
           00000093  Fboard$MPAGE$0$0                   board
           00000093  Fboard$P1_3$0$0                    board
           00000093  Fdma$MPAGE$0$0                     dma
           00000093  Fdma$P1_3$0$0                      dma
           00000093  Fgreen_led$MPAGE$0$0               green_led
           00000093  Fgreen_led$P1_3$0$0                green_led
           00000093  Fradio_mac$MPAGE$0$0               radio_mac
           00000093  Fradio_mac$P1_3$0$0                radio_mac
           00000093  Fradio_queue$MPAGE$0$0             radio_queue
           00000093  Fradio_queue$P1_3$0$0              radio_queue
           00000093  Fradio_registers$MPAGE$0$0         radio_registers
           00000093  Fradio_registers$P1_3$0$0          radio_registers
           00000093  Fradio_send_test_with_usb_com$MP   radio_send_test_with_usb_com
ASxxxx Linker V02.00 + NoICE + sdld,  page 12.
Hexadecimal  [32-Bits]

Area                                    Addr        Size        Decimal Bytes (Attributes)
--------------------------------        ----        ----        ------- ----- ------------
.	.ABS.                             00000000    00000000 =           0. bytes (ABS,CON)

      Value  Global                              Global Defined In Module
      -----  --------------------------------   ------------------------
           00000093  Fradio_send_test_with_usb_com$P1   radio_send_test_with_usb_com
           00000093  Frandom$MPAGE$0$0                  random
           00000093  Frandom$P1_3$0$0                   random
           00000093  Frandom_from_sernum$MPAGE$0$0      random_from_sernum
           00000093  Frandom_from_sernum$P1_3$0$0       random_from_sernum
           00000093  Ftime$MPAGE$0$0                    time
           00000093  Ftime$P1_3$0$0                     time
           00000093  Fusb$MPAGE$0$0                     usb
           00000093  Fusb$P1_3$0$0                      usb
           00000093  Fusb_cdc_acm$MPAGE$0$0             usb_cdc_acm
           00000093  Fusb_cdc_acm$P1_3$0$0              usb_cdc_acm
           00000093  __XPAGE                            xpage
           00000094  Fboard$P1_4$0$0                    board
           00000094  Fdma$P1_4$0$0                      dma
           00000094  Fgreen_led$P1_4$0$0                green_led
           00000094  Fradio_mac$P1_4$0$0                radio_mac
           00000094  Fradio_queue$P1_4$0$0              radio_queue
           00000094  Fradio_registers$P1_4$0$0          radio_registers
           00000094  Fradio_send_test_with_usb_com$P1   radio_send_test_with_usb_com
           00000094  Frandom$P1_4$0$0                   random
           00000094  Frandom_from_sernum$P1_4$0$0       random_from_sernum
           00000094  Ftime$P1_4$0$0                     time
           00000094  Fusb$P1_4$0$0                      usb
           00000094  Fusb_cdc_acm$P1_4$0$0              usb_cdc_acm
           00000095  Fboard$ENDIAN$0$0                  board
           00000095  Fboard$P1_5$0$0                    board
           00000095  Fdma$ENDIAN$0$0                    dma
           00000095  Fdma$P1_5$0$0                      dma
           00000095  Fgreen_led$ENDIAN$0$0              green_led
           00000095  Fgreen_led$P1_5$0$0                green_led
           00000095  Fradio_mac$ENDIAN$0$0              radio_mac
           00000095  Fradio_mac$P1_5$0$0                radio_mac
           00000095  Fradio_queue$ENDIAN$0$0            radio_queue
           00000095  Fradio_queue$P1_5$0$0              radio_queue
           00000095  Fradio_registers$ENDIAN$0$0        radio_registers
           00000095  Fradio_registers$P1_5$0$0          radio_registers
           00000095  Fradio_send_test_with_usb_com$EN   radio_send_test_with_usb_com
           00000095  Fradio_send_test_with_usb_com$P1   radio_send_test_with_usb_com
           00000095  Frandom$ENDIAN$0$0                 random
           00000095  Frandom$P1_5$0$0                   random
           00000095  Frandom_from_sernum$ENDIAN$0$0     random_from_sernum
           00000095  Frandom_from_sernum$P1_5$0$0       random_from_sernum
           00000095  Ftime$ENDIAN$0$0                   time
           00000095  Ftime$P1_5$0$0                     time
           00000095  Fusb$ENDIAN$0$0                    usb
           00000095  Fusb$P1_5$0$0                      usb
           00000095  Fusb_cdc_acm$ENDIAN$0$0            usb_cdc_acm
           00000095  Fusb_cdc_acm$P1_5$0$0              usb_cdc_acm
           00000096  Fboard$P1_6$0$0                    board
           00000096  Fdma$P1_6$0$0                      dma
           00000096  Fgreen_led$P1_6$0$0                green_led
ASxxxx Linker V02.00 + NoICE + sdld,  page 13.
Hexadecimal  [32-Bits]

Area                                    Addr        Size        Decimal Bytes (Attributes)
--------------------------------        ----        ----        ------- ----- ------------
.	.ABS.                             00000000    00000000 =           0. bytes (ABS,CON)

      Value  Global                              Global Defined In Module
      -----  --------------------------------   ------------------------
           00000096  Fradio_mac$P1_6$0$0                radio_mac
           00000096  Fradio_queue$P1_6$0$0              radio_queue
           00000096  Fradio_registers$P1_6$0$0          radio_registers
           00000096  Fradio_send_test_with_usb_com$P1   radio_send_test_with_usb_com
           00000096  Frandom$P1_6$0$0                   random
           00000096  Frandom_from_sernum$P1_6$0$0       random_from_sernum
           00000096  Ftime$P1_6$0$0                     time
           00000096  Fusb$P1_6$0$0                      usb
           00000096  Fusb_cdc_acm$P1_6$0$0              usb_cdc_acm
           00000097  Fboard$P1_7$0$0                    board
           00000097  Fdma$P1_7$0$0                      dma
           00000097  Fgreen_led$P1_7$0$0                green_led
           00000097  Fradio_mac$P1_7$0$0                radio_mac
           00000097  Fradio_queue$P1_7$0$0              radio_queue
           00000097  Fradio_registers$P1_7$0$0          radio_registers
           00000097  Fradio_send_test_with_usb_com$P1   radio_send_test_with_usb_com
           00000097  Frandom$P1_7$0$0                   random
           00000097  Frandom_from_sernum$P1_7$0$0       random_from_sernum
           00000097  Ftime$P1_7$0$0                     time
           00000097  Fusb$P1_7$0$0                      usb
           00000097  Fusb_cdc_acm$P1_7$0$0              usb_cdc_acm
           00000098  Fboard$ENCIF_0$0$0                 board
           00000098  Fboard$S0CON$0$0                   board
           00000098  Fdma$ENCIF_0$0$0                   dma
           00000098  Fdma$S0CON$0$0                     dma
           00000098  Fgreen_led$ENCIF_0$0$0             green_led
           00000098  Fgreen_led$S0CON$0$0               green_led
           00000098  Fradio_mac$ENCIF_0$0$0             radio_mac
           00000098  Fradio_mac$S0CON$0$0               radio_mac
           00000098  Fradio_queue$ENCIF_0$0$0           radio_queue
           00000098  Fradio_queue$S0CON$0$0             radio_queue
           00000098  Fradio_registers$ENCIF_0$0$0       radio_registers
           00000098  Fradio_registers$S0CON$0$0         radio_registers
           00000098  Fradio_send_test_with_usb_com$EN   radio_send_test_with_usb_com
           00000098  Fradio_send_test_with_usb_com$S0   radio_send_test_with_usb_com
           00000098  Frandom$ENCIF_0$0$0                random
           00000098  Frandom$S0CON$0$0                  random
           00000098  Frandom_from_sernum$ENCIF_0$0$0    random_from_sernum
           00000098  Frandom_from_sernum$S0CON$0$0      random_from_sernum
           00000098  Ftime$ENCIF_0$0$0                  time
           00000098  Ftime$S0CON$0$0                    time
           00000098  Fusb$ENCIF_0$0$0                   usb
           00000098  Fusb$S0CON$0$0                     usb
           00000098  Fusb_cdc_acm$ENCIF_0$0$0           usb_cdc_acm
           00000098  Fusb_cdc_acm$S0CON$0$0             usb_cdc_acm
           00000099  Fboard$ENCIF_1$0$0                 board
           00000099  Fdma$ENCIF_1$0$0                   dma
           00000099  Fgreen_led$ENCIF_1$0$0             green_led
           00000099  Fradio_mac$ENCIF_1$0$0             radio_mac
           00000099  Fradio_queue$ENCIF_1$0$0           radio_queue
           00000099  Fradio_registers$ENCIF_1$0$0       radio_registers
ASxxxx Linker V02.00 + NoICE + sdld,  page 14.
Hexadecimal  [32-Bits]

Area                                    Addr        Size        Decimal Bytes (Attributes)
--------------------------------        ----        ----        ------- ----- ------------
.	.ABS.                             00000000    00000000 =           0. bytes (ABS,CON)

      Value  Global                              Global Defined In Module
      -----  --------------------------------   ------------------------
           00000099  Fradio_send_test_with_usb_com$EN   radio_send_test_with_usb_com
           00000099  Frandom$ENCIF_1$0$0                random
           00000099  Frandom_from_sernum$ENCIF_1$0$0    random_from_sernum
           00000099  Ftime$ENCIF_1$0$0                  time
           00000099  Fusb$ENCIF_1$0$0                   usb
           00000099  Fusb_cdc_acm$ENCIF_1$0$0           usb_cdc_acm
           0000009A  Fboard$IEN2$0$0                    board
           0000009A  Fboard$_SOCON2$0$0                 board
           0000009A  Fdma$IEN2$0$0                      dma
           0000009A  Fdma$_SOCON2$0$0                   dma
           0000009A  Fgreen_led$IEN2$0$0                green_led
           0000009A  Fgreen_led$_SOCON2$0$0             green_led
           0000009A  Fradio_mac$IEN2$0$0                radio_mac
           0000009A  Fradio_mac$_SOCON2$0$0             radio_mac
           0000009A  Fradio_queue$IEN2$0$0              radio_queue
           0000009A  Fradio_queue$_SOCON2$0$0           radio_queue
           0000009A  Fradio_registers$IEN2$0$0          radio_registers
           0000009A  Fradio_registers$_SOCON2$0$0       radio_registers
           0000009A  Fradio_send_test_with_usb_com$IE   radio_send_test_with_usb_com
           0000009A  Fradio_send_test_with_usb_com$_S   radio_send_test_with_usb_com
           0000009A  Frandom$IEN2$0$0                   random
           0000009A  Frandom$_SOCON2$0$0                random
           0000009A  Frandom_from_sernum$IEN2$0$0       random_from_sernum
           0000009A  Frandom_from_sernum$_SOCON2$0$0    random_from_sernum
           0000009A  Ftime$IEN2$0$0                     time
           0000009A  Ftime$_SOCON2$0$0                  time
           0000009A  Fusb$IEN2$0$0                      usb
           0000009A  Fusb$_SOCON2$0$0                   usb
           0000009A  Fusb_cdc_acm$IEN2$0$0              usb_cdc_acm
           0000009A  Fusb_cdc_acm$_SOCON2$0$0           usb_cdc_acm
           0000009B  Fboard$S1CON$0$0                   board
           0000009B  Fboard$_SOCON3$0$0                 board
           0000009B  Fdma$S1CON$0$0                     dma
           0000009B  Fdma$_SOCON3$0$0                   dma
           0000009B  Fgreen_led$S1CON$0$0               green_led
           0000009B  Fgreen_led$_SOCON3$0$0             green_led
           0000009B  Fradio_mac$S1CON$0$0               radio_mac
           0000009B  Fradio_mac$_SOCON3$0$0             radio_mac
           0000009B  Fradio_queue$S1CON$0$0             radio_queue
           0000009B  Fradio_queue$_SOCON3$0$0           radio_queue
           0000009B  Fradio_registers$S1CON$0$0         radio_registers
           0000009B  Fradio_registers$_SOCON3$0$0       radio_registers
           0000009B  Fradio_send_test_with_usb_com$S1   radio_send_test_with_usb_com
           0000009B  Fradio_send_test_with_usb_com$_S   radio_send_test_with_usb_com
           0000009B  Frandom$S1CON$0$0                  random
           0000009B  Frandom$_SOCON3$0$0                random
           0000009B  Frandom_from_sernum$S1CON$0$0      random_from_sernum
           0000009B  Frandom_from_sernum$_SOCON3$0$0    random_from_sernum
           0000009B  Ftime$S1CON$0$0                    time
           0000009B  Ftime$_SOCON3$0$0                  time
           0000009B  Fusb$S1CON$0$0                     usb
ASxxxx Linker V02.00 + NoICE + sdld,  page 15.
Hexadecimal  [32-Bits]

Area                                    Addr        Size        Decimal Bytes (Attributes)
--------------------------------        ----        ----        ------- ----- ------------
.	.ABS.                             00000000    00000000 =           0. bytes (ABS,CON)

      Value  Global                              Global Defined In Module
      -----  --------------------------------   ------------------------
           0000009B  Fusb$_SOCON3$0$0                   usb
           0000009B  Fusb_cdc_acm$S1CON$0$0             usb_cdc_acm
           0000009B  Fusb_cdc_acm$_SOCON3$0$0           usb_cdc_acm
           0000009C  Fboard$T2CT$0$0                    board
           0000009C  Fboard$_SOCON4$0$0                 board
           0000009C  Fdma$T2CT$0$0                      dma
           0000009C  Fdma$_SOCON4$0$0                   dma
           0000009C  Fgreen_led$T2CT$0$0                green_led
           0000009C  Fgreen_led$_SOCON4$0$0             green_led
           0000009C  Fradio_mac$T2CT$0$0                radio_mac
           0000009C  Fradio_mac$_SOCON4$0$0             radio_mac
           0000009C  Fradio_queue$T2CT$0$0              radio_queue
           0000009C  Fradio_queue$_SOCON4$0$0           radio_queue
           0000009C  Fradio_registers$T2CT$0$0          radio_registers
           0000009C  Fradio_registers$_SOCON4$0$0       radio_registers
           0000009C  Fradio_send_test_with_usb_com$T2   radio_send_test_with_usb_com
           0000009C  Fradio_send_test_with_usb_com$_S   radio_send_test_with_usb_com
           0000009C  Frandom$T2CT$0$0                   random
           0000009C  Frandom$_SOCON4$0$0                random
           0000009C  Frandom_from_sernum$T2CT$0$0       random_from_sernum
           0000009C  Frandom_from_sernum$_SOCON4$0$0    random_from_sernum
           0000009C  Ftime$T2CT$0$0                     time
           0000009C  Ftime$_SOCON4$0$0                  time
           0000009C  Fusb$T2CT$0$0                      usb
           0000009C  Fusb$_SOCON4$0$0                   usb
           0000009C  Fusb_cdc_acm$T2CT$0$0              usb_cdc_acm
           0000009C  Fusb_cdc_acm$_SOCON4$0$0           usb_cdc_acm
           0000009D  Fboard$T2PR$0$0                    board
           0000009D  Fboard$_SOCON5$0$0                 board
           0000009D  Fdma$T2PR$0$0                      dma
           0000009D  Fdma$_SOCON5$0$0                   dma
           0000009D  Fgreen_led$T2PR$0$0                green_led
           0000009D  Fgreen_led$_SOCON5$0$0             green_led
           0000009D  Fradio_mac$T2PR$0$0                radio_mac
           0000009D  Fradio_mac$_SOCON5$0$0             radio_mac
           0000009D  Fradio_queue$T2PR$0$0              radio_queue
           0000009D  Fradio_queue$_SOCON5$0$0           radio_queue
           0000009D  Fradio_registers$T2PR$0$0          radio_registers
           0000009D  Fradio_registers$_SOCON5$0$0       radio_registers
           0000009D  Fradio_send_test_with_usb_com$T2   radio_send_test_with_usb_com
           0000009D  Fradio_send_test_with_usb_com$_S   radio_send_test_with_usb_com
           0000009D  Frandom$T2PR$0$0                   random
           0000009D  Frandom$_SOCON5$0$0                random
           0000009D  Frandom_from_sernum$T2PR$0$0       random_from_sernum
           0000009D  Frandom_from_sernum$_SOCON5$0$0    random_from_sernum
           0000009D  Ftime$T2PR$0$0                     time
           0000009D  Ftime$_SOCON5$0$0                  time
           0000009D  Fusb$T2PR$0$0                      usb
           0000009D  Fusb$_SOCON5$0$0                   usb
           0000009D  Fusb_cdc_acm$T2PR$0$0              usb_cdc_acm
           0000009D  Fusb_cdc_acm$_SOCON5$0$0           usb_cdc_acm
ASxxxx Linker V02.00 + NoICE + sdld,  page 16.
Hexadecimal  [32-Bits]

Area                                    Addr        Size        Decimal Bytes (Attributes)
--------------------------------        ----        ----        ------- ----- ------------
.	.ABS.                             00000000    00000000 =           0. bytes (ABS,CON)

      Value  Global                              Global Defined In Module
      -----  --------------------------------   ------------------------
           0000009E  Fboard$T2CTL$0$0                   board
           0000009E  Fboard$_SOCON6$0$0                 board
           0000009E  Fdma$T2CTL$0$0                     dma
           0000009E  Fdma$_SOCON6$0$0                   dma
           0000009E  Fgreen_led$T2CTL$0$0               green_led
           0000009E  Fgreen_led$_SOCON6$0$0             green_led
           0000009E  Fradio_mac$T2CTL$0$0               radio_mac
           0000009E  Fradio_mac$_SOCON6$0$0             radio_mac
           0000009E  Fradio_queue$T2CTL$0$0             radio_queue
           0000009E  Fradio_queue$_SOCON6$0$0           radio_queue
           0000009E  Fradio_registers$T2CTL$0$0         radio_registers
           0000009E  Fradio_registers$_SOCON6$0$0       radio_registers
           0000009E  Fradio_send_test_with_usb_com$T2   radio_send_test_with_usb_com
           0000009E  Fradio_send_test_with_usb_com$_S   radio_send_test_with_usb_com
           0000009E  Frandom$T2CTL$0$0                  random
           0000009E  Frandom$_SOCON6$0$0                random
           0000009E  Frandom_from_sernum$T2CTL$0$0      random_from_sernum
           0000009E  Frandom_from_sernum$_SOCON6$0$0    random_from_sernum
           0000009E  Ftime$T2CTL$0$0                    time
           0000009E  Ftime$_SOCON6$0$0                  time
           0000009E  Fusb$T2CTL$0$0                     usb
           0000009E  Fusb$_SOCON6$0$0                   usb
           0000009E  Fusb_cdc_acm$T2CTL$0$0             usb_cdc_acm
           0000009E  Fusb_cdc_acm$_SOCON6$0$0           usb_cdc_acm
           0000009F  Fboard$_SOCON7$0$0                 board
           0000009F  Fdma$_SOCON7$0$0                   dma
           0000009F  Fgreen_led$_SOCON7$0$0             green_led
           0000009F  Fradio_mac$_SOCON7$0$0             radio_mac
           0000009F  Fradio_queue$_SOCON7$0$0           radio_queue
           0000009F  Fradio_registers$_SOCON7$0$0       radio_registers
           0000009F  Fradio_send_test_with_usb_com$_S   radio_send_test_with_usb_com
           0000009F  Frandom$_SOCON7$0$0                random
           0000009F  Frandom_from_sernum$_SOCON7$0$0    random_from_sernum
           0000009F  Ftime$_SOCON7$0$0                  time
           0000009F  Fusb$_SOCON7$0$0                   usb
           0000009F  Fusb_cdc_acm$_SOCON7$0$0           usb_cdc_acm
           000000A0  Fboard$P2$0$0                      board
           000000A0  Fboard$P2_0$0$0                    board
           000000A0  Fdma$P2$0$0                        dma
           000000A0  Fdma$P2_0$0$0                      dma
           000000A0  Fgreen_led$P2$0$0                  green_led
           000000A0  Fgreen_led$P2_0$0$0                green_led
           000000A0  Fradio_mac$P2$0$0                  radio_mac
           000000A0  Fradio_mac$P2_0$0$0                radio_mac
           000000A0  Fradio_queue$P2$0$0                radio_queue
           000000A0  Fradio_queue$P2_0$0$0              radio_queue
           000000A0  Fradio_registers$P2$0$0            radio_registers
           000000A0  Fradio_registers$P2_0$0$0          radio_registers
           000000A0  Fradio_send_test_with_usb_com$P2   radio_send_test_with_usb_com
           000000A0  Fradio_send_test_with_usb_com$P2   radio_send_test_with_usb_com
           000000A0  Frandom$P2$0$0                     random
ASxxxx Linker V02.00 + NoICE + sdld,  page 17.
Hexadecimal  [32-Bits]

Area                                    Addr        Size        Decimal Bytes (Attributes)
--------------------------------        ----        ----        ------- ----- ------------
.	.ABS.                             00000000    00000000 =           0. bytes (ABS,CON)

      Value  Global                              Global Defined In Module
      -----  --------------------------------   ------------------------
           000000A0  Frandom$P2_0$0$0                   random
           000000A0  Frandom_from_sernum$P2$0$0         random_from_sernum
           000000A0  Frandom_from_sernum$P2_0$0$0       random_from_sernum
           000000A0  Ftime$P2$0$0                       time
           000000A0  Ftime$P2_0$0$0                     time
           000000A0  Fusb$P2$0$0                        usb
           000000A0  Fusb$P2_0$0$0                      usb
           000000A0  Fusb_cdc_acm$P2$0$0                usb_cdc_acm
           000000A0  Fusb_cdc_acm$P2_0$0$0              usb_cdc_acm
           000000A1  Fboard$P2_1$0$0                    board
           000000A1  Fboard$WORIRQ$0$0                  board
           000000A1  Fdma$P2_1$0$0                      dma
           000000A1  Fdma$WORIRQ$0$0                    dma
           000000A1  Fgreen_led$P2_1$0$0                green_led
           000000A1  Fgreen_led$WORIRQ$0$0              green_led
           000000A1  Fradio_mac$P2_1$0$0                radio_mac
           000000A1  Fradio_mac$WORIRQ$0$0              radio_mac
           000000A1  Fradio_queue$P2_1$0$0              radio_queue
           000000A1  Fradio_queue$WORIRQ$0$0            radio_queue
           000000A1  Fradio_registers$P2_1$0$0          radio_registers
           000000A1  Fradio_registers$WORIRQ$0$0        radio_registers
           000000A1  Fradio_send_test_with_usb_com$P2   radio_send_test_with_usb_com
           000000A1  Fradio_send_test_with_usb_com$WO   radio_send_test_with_usb_com
           000000A1  Frandom$P2_1$0$0                   random
           000000A1  Frandom$WORIRQ$0$0                 random
           000000A1  Frandom_from_sernum$P2_1$0$0       random_from_sernum
           000000A1  Frandom_from_sernum$WORIRQ$0$0     random_from_sernum
           000000A1  Ftime$P2_1$0$0                     time
           000000A1  Ftime$WORIRQ$0$0                   time
           000000A1  Fusb$P2_1$0$0                      usb
           000000A1  Fusb$WORIRQ$0$0                    usb
           000000A1  Fusb_cdc_acm$P2_1$0$0              usb_cdc_acm
           000000A1  Fusb_cdc_acm$WORIRQ$0$0            usb_cdc_acm
           000000A2  Fboard$P2_2$0$0                    board
           000000A2  Fboard$WORCTRL$0$0                 board
           000000A2  Fdma$P2_2$0$0                      dma
           000000A2  Fdma$WORCTRL$0$0                   dma
           000000A2  Fgreen_led$P2_2$0$0                green_led
           000000A2  Fgreen_led$WORCTRL$0$0             green_led
           000000A2  Fradio_mac$P2_2$0$0                radio_mac
           000000A2  Fradio_mac$WORCTRL$0$0             radio_mac
           000000A2  Fradio_queue$P2_2$0$0              radio_queue
           000000A2  Fradio_queue$WORCTRL$0$0           radio_queue
           000000A2  Fradio_registers$P2_2$0$0          radio_registers
           000000A2  Fradio_registers$WORCTRL$0$0       radio_registers
           000000A2  Fradio_send_test_with_usb_com$P2   radio_send_test_with_usb_com
           000000A2  Fradio_send_test_with_usb_com$WO   radio_send_test_with_usb_com
           000000A2  Frandom$P2_2$0$0                   random
           000000A2  Frandom$WORCTRL$0$0                random
           000000A2  Frandom_from_sernum$P2_2$0$0       random_from_sernum
           000000A2  Frandom_from_sernum$WORCTRL$0$0    random_from_sernum
ASxxxx Linker V02.00 + NoICE + sdld,  page 18.
Hexadecimal  [32-Bits]

Area                                    Addr        Size        Decimal Bytes (Attributes)
--------------------------------        ----        ----        ------- ----- ------------
.	.ABS.                             00000000    00000000 =           0. bytes (ABS,CON)

      Value  Global                              Global Defined In Module
      -----  --------------------------------   ------------------------
           000000A2  Ftime$P2_2$0$0                     time
           000000A2  Ftime$WORCTRL$0$0                  time
           000000A2  Fusb$P2_2$0$0                      usb
           000000A2  Fusb$WORCTRL$0$0                   usb
           000000A2  Fusb_cdc_acm$P2_2$0$0              usb_cdc_acm
           000000A2  Fusb_cdc_acm$WORCTRL$0$0           usb_cdc_acm
           000000A3  Fboard$P2_3$0$0                    board
           000000A3  Fboard$WOREVT0$0$0                 board
           000000A3  Fdma$P2_3$0$0                      dma
           000000A3  Fdma$WOREVT0$0$0                   dma
           000000A3  Fgreen_led$P2_3$0$0                green_led
           000000A3  Fgreen_led$WOREVT0$0$0             green_led
           000000A3  Fradio_mac$P2_3$0$0                radio_mac
           000000A3  Fradio_mac$WOREVT0$0$0             radio_mac
           000000A3  Fradio_queue$P2_3$0$0              radio_queue
           000000A3  Fradio_queue$WOREVT0$0$0           radio_queue
           000000A3  Fradio_registers$P2_3$0$0          radio_registers
           000000A3  Fradio_registers$WOREVT0$0$0       radio_registers
           000000A3  Fradio_send_test_with_usb_com$P2   radio_send_test_with_usb_com
           000000A3  Fradio_send_test_with_usb_com$WO   radio_send_test_with_usb_com
           000000A3  Frandom$P2_3$0$0                   random
           000000A3  Frandom$WOREVT0$0$0                random
           000000A3  Frandom_from_sernum$P2_3$0$0       random_from_sernum
           000000A3  Frandom_from_sernum$WOREVT0$0$0    random_from_sernum
           000000A3  Ftime$P2_3$0$0                     time
           000000A3  Ftime$WOREVT0$0$0                  time
           000000A3  Fusb$P2_3$0$0                      usb
           000000A3  Fusb$WOREVT0$0$0                   usb
           000000A3  Fusb_cdc_acm$P2_3$0$0              usb_cdc_acm
           000000A3  Fusb_cdc_acm$WOREVT0$0$0           usb_cdc_acm
           000000A4  Fboard$P2_4$0$0                    board
           000000A4  Fboard$WOREVT1$0$0                 board
           000000A4  Fdma$P2_4$0$0                      dma
           000000A4  Fdma$WOREVT1$0$0                   dma
           000000A4  Fgreen_led$P2_4$0$0                green_led
           000000A4  Fgreen_led$WOREVT1$0$0             green_led
           000000A4  Fradio_mac$P2_4$0$0                radio_mac
           000000A4  Fradio_mac$WOREVT1$0$0             radio_mac
           000000A4  Fradio_queue$P2_4$0$0              radio_queue
           000000A4  Fradio_queue$WOREVT1$0$0           radio_queue
           000000A4  Fradio_registers$P2_4$0$0          radio_registers
           000000A4  Fradio_registers$WOREVT1$0$0       radio_registers
           000000A4  Fradio_send_test_with_usb_com$P2   radio_send_test_with_usb_com
           000000A4  Fradio_send_test_with_usb_com$WO   radio_send_test_with_usb_com
           000000A4  Frandom$P2_4$0$0                   random
           000000A4  Frandom$WOREVT1$0$0                random
           000000A4  Frandom_from_sernum$P2_4$0$0       random_from_sernum
           000000A4  Frandom_from_sernum$WOREVT1$0$0    random_from_sernum
           000000A4  Ftime$P2_4$0$0                     time
           000000A4  Ftime$WOREVT1$0$0                  time
           000000A4  Fusb$P2_4$0$0                      usb
ASxxxx Linker V02.00 + NoICE + sdld,  page 19.
Hexadecimal  [32-Bits]

Area                                    Addr        Size        Decimal Bytes (Attributes)
--------------------------------        ----        ----        ------- ----- ------------
.	.ABS.                             00000000    00000000 =           0. bytes (ABS,CON)

      Value  Global                              Global Defined In Module
      -----  --------------------------------   ------------------------
           000000A4  Fusb$WOREVT1$0$0                   usb
           000000A4  Fusb_cdc_acm$P2_4$0$0              usb_cdc_acm
           000000A4  Fusb_cdc_acm$WOREVT1$0$0           usb_cdc_acm
           000000A5  Fboard$P2_5$0$0                    board
           000000A5  Fboard$WORTIME0$0$0                board
           000000A5  Fdma$P2_5$0$0                      dma
           000000A5  Fdma$WORTIME0$0$0                  dma
           000000A5  Fgreen_led$P2_5$0$0                green_led
           000000A5  Fgreen_led$WORTIME0$0$0            green_led
           000000A5  Fradio_mac$P2_5$0$0                radio_mac
           000000A5  Fradio_mac$WORTIME0$0$0            radio_mac
           000000A5  Fradio_queue$P2_5$0$0              radio_queue
           000000A5  Fradio_queue$WORTIME0$0$0          radio_queue
           000000A5  Fradio_registers$P2_5$0$0          radio_registers
           000000A5  Fradio_registers$WORTIME0$0$0      radio_registers
           000000A5  Fradio_send_test_with_usb_com$P2   radio_send_test_with_usb_com
           000000A5  Fradio_send_test_with_usb_com$WO   radio_send_test_with_usb_com
           000000A5  Frandom$P2_5$0$0                   random
           000000A5  Frandom$WORTIME0$0$0               random
           000000A5  Frandom_from_sernum$P2_5$0$0       random_from_sernum
           000000A5  Frandom_from_sernum$WORTIME0$0$0   random_from_sernum
           000000A5  Ftime$P2_5$0$0                     time
           000000A5  Ftime$WORTIME0$0$0                 time
           000000A5  Fusb$P2_5$0$0                      usb
           000000A5  Fusb$WORTIME0$0$0                  usb
           000000A5  Fusb_cdc_acm$P2_5$0$0              usb_cdc_acm
           000000A5  Fusb_cdc_acm$WORTIME0$0$0          usb_cdc_acm
           000000A6  Fboard$P2_6$0$0                    board
           000000A6  Fboard$WORTIME1$0$0                board
           000000A6  Fdma$P2_6$0$0                      dma
           000000A6  Fdma$WORTIME1$0$0                  dma
           000000A6  Fgreen_led$P2_6$0$0                green_led
           000000A6  Fgreen_led$WORTIME1$0$0            green_led
           000000A6  Fradio_mac$P2_6$0$0                radio_mac
           000000A6  Fradio_mac$WORTIME1$0$0            radio_mac
           000000A6  Fradio_queue$P2_6$0$0              radio_queue
           000000A6  Fradio_queue$WORTIME1$0$0          radio_queue
           000000A6  Fradio_registers$P2_6$0$0          radio_registers
           000000A6  Fradio_registers$WORTIME1$0$0      radio_registers
           000000A6  Fradio_send_test_with_usb_com$P2   radio_send_test_with_usb_com
           000000A6  Fradio_send_test_with_usb_com$WO   radio_send_test_with_usb_com
           000000A6  Frandom$P2_6$0$0                   random
           000000A6  Frandom$WORTIME1$0$0               random
           000000A6  Frandom_from_sernum$P2_6$0$0       random_from_sernum
           000000A6  Frandom_from_sernum$WORTIME1$0$0   random_from_sernum
           000000A6  Ftime$P2_6$0$0                     time
           000000A6  Ftime$WORTIME1$0$0                 time
           000000A6  Fusb$P2_6$0$0                      usb
           000000A6  Fusb$WORTIME1$0$0                  usb
           000000A6  Fusb_cdc_acm$P2_6$0$0              usb_cdc_acm
           000000A6  Fusb_cdc_acm$WORTIME1$0$0          usb_cdc_acm
ASxxxx Linker V02.00 + NoICE + sdld,  page 20.
Hexadecimal  [32-Bits]

Area                                    Addr        Size        Decimal Bytes (Attributes)
--------------------------------        ----        ----        ------- ----- ------------
.	.ABS.                             00000000    00000000 =           0. bytes (ABS,CON)

      Value  Global                              Global Defined In Module
      -----  --------------------------------   ------------------------
           000000A7  Fboard$P2_7$0$0                    board
           000000A7  Fdma$P2_7$0$0                      dma
           000000A7  Fgreen_led$P2_7$0$0                green_led
           000000A7  Fradio_mac$P2_7$0$0                radio_mac
           000000A7  Fradio_queue$P2_7$0$0              radio_queue
           000000A7  Fradio_registers$P2_7$0$0          radio_registers
           000000A7  Fradio_send_test_with_usb_com$P2   radio_send_test_with_usb_com
           000000A7  Frandom$P2_7$0$0                   random
           000000A7  Frandom_from_sernum$P2_7$0$0       random_from_sernum
           000000A7  Ftime$P2_7$0$0                     time
           000000A7  Fusb$P2_7$0$0                      usb
           000000A7  Fusb_cdc_acm$P2_7$0$0              usb_cdc_acm
           000000A8  Fboard$IEN0$0$0                    board
           000000A8  Fboard$RFTXRXIE$0$0                board
           000000A8  Fdma$IEN0$0$0                      dma
           000000A8  Fdma$RFTXRXIE$0$0                  dma
           000000A8  Fgreen_led$IEN0$0$0                green_led
           000000A8  Fgreen_led$RFTXRXIE$0$0            green_led
           000000A8  Fradio_mac$IEN0$0$0                radio_mac
           000000A8  Fradio_mac$RFTXRXIE$0$0            radio_mac
           000000A8  Fradio_queue$IEN0$0$0              radio_queue
           000000A8  Fradio_queue$RFTXRXIE$0$0          radio_queue
           000000A8  Fradio_registers$IEN0$0$0          radio_registers
           000000A8  Fradio_registers$RFTXRXIE$0$0      radio_registers
           000000A8  Fradio_send_test_with_usb_com$IE   radio_send_test_with_usb_com
           000000A8  Fradio_send_test_with_usb_com$RF   radio_send_test_with_usb_com
           000000A8  Frandom$IEN0$0$0                   random
           000000A8  Frandom$RFTXRXIE$0$0               random
           000000A8  Frandom_from_sernum$IEN0$0$0       random_from_sernum
           000000A8  Frandom_from_sernum$RFTXRXIE$0$0   random_from_sernum
           000000A8  Ftime$IEN0$0$0                     time
           000000A8  Ftime$RFTXRXIE$0$0                 time
           000000A8  Fusb$IEN0$0$0                      usb
           000000A8  Fusb$RFTXRXIE$0$0                  usb
           000000A8  Fusb_cdc_acm$IEN0$0$0              usb_cdc_acm
           000000A8  Fusb_cdc_acm$RFTXRXIE$0$0          usb_cdc_acm
           000000A9  Fboard$ADCIE$0$0                   board
           000000A9  Fboard$IP0$0$0                     board
           000000A9  Fdma$ADCIE$0$0                     dma
           000000A9  Fdma$IP0$0$0                       dma
           000000A9  Fgreen_led$ADCIE$0$0               green_led
           000000A9  Fgreen_led$IP0$0$0                 green_led
           000000A9  Fradio_mac$ADCIE$0$0               radio_mac
           000000A9  Fradio_mac$IP0$0$0                 radio_mac
           000000A9  Fradio_queue$ADCIE$0$0             radio_queue
           000000A9  Fradio_queue$IP0$0$0               radio_queue
           000000A9  Fradio_registers$ADCIE$0$0         radio_registers
           000000A9  Fradio_registers$IP0$0$0           radio_registers
           000000A9  Fradio_send_test_with_usb_com$AD   radio_send_test_with_usb_com
           000000A9  Fradio_send_test_with_usb_com$IP   radio_send_test_with_usb_com
           000000A9  Frandom$ADCIE$0$0                  random
ASxxxx Linker V02.00 + NoICE + sdld,  page 21.
Hexadecimal  [32-Bits]

Area                                    Addr        Size        Decimal Bytes (Attributes)
--------------------------------        ----        ----        ------- ----- ------------
.	.ABS.                             00000000    00000000 =           0. bytes (ABS,CON)

      Value  Global                              Global Defined In Module
      -----  --------------------------------   ------------------------
           000000A9  Frandom$IP0$0$0                    random
           000000A9  Frandom_from_sernum$ADCIE$0$0      random_from_sernum
           000000A9  Frandom_from_sernum$IP0$0$0        random_from_sernum
           000000A9  Ftime$ADCIE$0$0                    time
           000000A9  Ftime$IP0$0$0                      time
           000000A9  Fusb$ADCIE$0$0                     usb
           000000A9  Fusb$IP0$0$0                       usb
           000000A9  Fusb_cdc_acm$ADCIE$0$0             usb_cdc_acm
           000000A9  Fusb_cdc_acm$IP0$0$0               usb_cdc_acm
           000000AA  Fboard$URX0IE$0$0                  board
           000000AA  Fdma$URX0IE$0$0                    dma
           000000AA  Fgreen_led$URX0IE$0$0              green_led
           000000AA  Fradio_mac$URX0IE$0$0              radio_mac
           000000AA  Fradio_queue$URX0IE$0$0            radio_queue
           000000AA  Fradio_registers$URX0IE$0$0        radio_registers
           000000AA  Fradio_send_test_with_usb_com$UR   radio_send_test_with_usb_com
           000000AA  Frandom$URX0IE$0$0                 random
           000000AA  Frandom_from_sernum$URX0IE$0$0     random_from_sernum
           000000AA  Ftime$URX0IE$0$0                   time
           000000AA  Fusb$URX0IE$0$0                    usb
           000000AA  Fusb_cdc_acm$URX0IE$0$0            usb_cdc_acm
           000000AB  Fboard$FWT$0$0                     board
           000000AB  Fboard$URX1IE$0$0                  board
           000000AB  Fdma$FWT$0$0                       dma
           000000AB  Fdma$URX1IE$0$0                    dma
           000000AB  Fgreen_led$FWT$0$0                 green_led
           000000AB  Fgreen_led$URX1IE$0$0              green_led
           000000AB  Fradio_mac$FWT$0$0                 radio_mac
           000000AB  Fradio_mac$URX1IE$0$0              radio_mac
           000000AB  Fradio_queue$FWT$0$0               radio_queue
           000000AB  Fradio_queue$URX1IE$0$0            radio_queue
           000000AB  Fradio_registers$FWT$0$0           radio_registers
           000000AB  Fradio_registers$URX1IE$0$0        radio_registers
           000000AB  Fradio_send_test_with_usb_com$FW   radio_send_test_with_usb_com
           000000AB  Fradio_send_test_with_usb_com$UR   radio_send_test_with_usb_com
           000000AB  Frandom$FWT$0$0                    random
           000000AB  Frandom$URX1IE$0$0                 random
           000000AB  Frandom_from_sernum$FWT$0$0        random_from_sernum
           000000AB  Frandom_from_sernum$URX1IE$0$0     random_from_sernum
           000000AB  Ftime$FWT$0$0                      time
           000000AB  Ftime$URX1IE$0$0                   time
           000000AB  Fusb$FWT$0$0                       usb
           000000AB  Fusb$URX1IE$0$0                    usb
           000000AB  Fusb_cdc_acm$FWT$0$0               usb_cdc_acm
           000000AB  Fusb_cdc_acm$URX1IE$0$0            usb_cdc_acm
           000000AC  Fboard$ENCIE$0$0                   board
           000000AC  Fboard$FADDRL$0$0                  board
           000000AC  Fdma$ENCIE$0$0                     dma
           000000AC  Fdma$FADDRL$0$0                    dma
           000000AC  Fgreen_led$ENCIE$0$0               green_led
           000000AC  Fgreen_led$FADDRL$0$0              green_led
ASxxxx Linker V02.00 + NoICE + sdld,  page 22.
Hexadecimal  [32-Bits]

Area                                    Addr        Size        Decimal Bytes (Attributes)
--------------------------------        ----        ----        ------- ----- ------------
.	.ABS.                             00000000    00000000 =           0. bytes (ABS,CON)

      Value  Global                              Global Defined In Module
      -----  --------------------------------   ------------------------
           000000AC  Fradio_mac$ENCIE$0$0               radio_mac
           000000AC  Fradio_mac$FADDRL$0$0              radio_mac
           000000AC  Fradio_queue$ENCIE$0$0             radio_queue
           000000AC  Fradio_queue$FADDRL$0$0            radio_queue
           000000AC  Fradio_registers$ENCIE$0$0         radio_registers
           000000AC  Fradio_registers$FADDRL$0$0        radio_registers
           000000AC  Fradio_send_test_with_usb_com$EN   radio_send_test_with_usb_com
           000000AC  Fradio_send_test_with_usb_com$FA   radio_send_test_with_usb_com
           000000AC  Frandom$ENCIE$0$0                  random
           000000AC  Frandom$FADDRL$0$0                 random
           000000AC  Frandom_from_sernum$ENCIE$0$0      random_from_sernum
           000000AC  Frandom_from_sernum$FADDRL$0$0     random_from_sernum
           000000AC  Ftime$ENCIE$0$0                    time
           000000AC  Ftime$FADDRL$0$0                   time
           000000AC  Fusb$ENCIE$0$0                     usb
           000000AC  Fusb$FADDRL$0$0                    usb
           000000AC  Fusb_cdc_acm$ENCIE$0$0             usb_cdc_acm
           000000AC  Fusb_cdc_acm$FADDRL$0$0            usb_cdc_acm
           000000AD  Fboard$FADDRH$0$0                  board
           000000AD  Fboard$STIE$0$0                    board
           000000AD  Fdma$FADDRH$0$0                    dma
           000000AD  Fdma$STIE$0$0                      dma
           000000AD  Fgreen_led$FADDRH$0$0              green_led
           000000AD  Fgreen_led$STIE$0$0                green_led
           000000AD  Fradio_mac$FADDRH$0$0              radio_mac
           000000AD  Fradio_mac$STIE$0$0                radio_mac
           000000AD  Fradio_queue$FADDRH$0$0            radio_queue
           000000AD  Fradio_queue$STIE$0$0              radio_queue
           000000AD  Fradio_registers$FADDRH$0$0        radio_registers
           000000AD  Fradio_registers$STIE$0$0          radio_registers
           000000AD  Fradio_send_test_with_usb_com$FA   radio_send_test_with_usb_com
           000000AD  Fradio_send_test_with_usb_com$ST   radio_send_test_with_usb_com
           000000AD  Frandom$FADDRH$0$0                 random
           000000AD  Frandom$STIE$0$0                   random
           000000AD  Frandom_from_sernum$FADDRH$0$0     random_from_sernum
           000000AD  Frandom_from_sernum$STIE$0$0       random_from_sernum
           000000AD  Ftime$FADDRH$0$0                   time
           000000AD  Ftime$STIE$0$0                     time
           000000AD  Fusb$FADDRH$0$0                    usb
           000000AD  Fusb$STIE$0$0                      usb
           000000AD  Fusb_cdc_acm$FADDRH$0$0            usb_cdc_acm
           000000AD  Fusb_cdc_acm$STIE$0$0              usb_cdc_acm
           000000AE  Fboard$FCTL$0$0                    board
           000000AE  Fboard$_IEN06$0$0                  board
           000000AE  Fdma$FCTL$0$0                      dma
           000000AE  Fdma$_IEN06$0$0                    dma
           000000AE  Fgreen_led$FCTL$0$0                green_led
           000000AE  Fgreen_led$_IEN06$0$0              green_led
           000000AE  Fradio_mac$FCTL$0$0                radio_mac
           000000AE  Fradio_mac$_IEN06$0$0              radio_mac
           000000AE  Fradio_queue$FCTL$0$0              radio_queue
ASxxxx Linker V02.00 + NoICE + sdld,  page 23.
Hexadecimal  [32-Bits]

Area                                    Addr        Size        Decimal Bytes (Attributes)
--------------------------------        ----        ----        ------- ----- ------------
.	.ABS.                             00000000    00000000 =           0. bytes (ABS,CON)

      Value  Global                              Global Defined In Module
      -----  --------------------------------   ------------------------
           000000AE  Fradio_queue$_IEN06$0$0            radio_queue
           000000AE  Fradio_registers$FCTL$0$0          radio_registers
           000000AE  Fradio_registers$_IEN06$0$0        radio_registers
           000000AE  Fradio_send_test_with_usb_com$FC   radio_send_test_with_usb_com
           000000AE  Fradio_send_test_with_usb_com$_I   radio_send_test_with_usb_com
           000000AE  Frandom$FCTL$0$0                   random
           000000AE  Frandom$_IEN06$0$0                 random
           000000AE  Frandom_from_sernum$FCTL$0$0       random_from_sernum
           000000AE  Frandom_from_sernum$_IEN06$0$0     random_from_sernum
           000000AE  Ftime$FCTL$0$0                     time
           000000AE  Ftime$_IEN06$0$0                   time
           000000AE  Fusb$FCTL$0$0                      usb
           000000AE  Fusb$_IEN06$0$0                    usb
           000000AE  Fusb_cdc_acm$FCTL$0$0              usb_cdc_acm
           000000AE  Fusb_cdc_acm$_IEN06$0$0            usb_cdc_acm
           000000AF  Fboard$EA$0$0                      board
           000000AF  Fboard$FWDATA$0$0                  board
           000000AF  Fdma$EA$0$0                        dma
           000000AF  Fdma$FWDATA$0$0                    dma
           000000AF  Fgreen_led$EA$0$0                  green_led
           000000AF  Fgreen_led$FWDATA$0$0              green_led
           000000AF  Fradio_mac$EA$0$0                  radio_mac
           000000AF  Fradio_mac$FWDATA$0$0              radio_mac
           000000AF  Fradio_queue$EA$0$0                radio_queue
           000000AF  Fradio_queue$FWDATA$0$0            radio_queue
           000000AF  Fradio_registers$EA$0$0            radio_registers
           000000AF  Fradio_registers$FWDATA$0$0        radio_registers
           000000AF  Fradio_send_test_with_usb_com$EA   radio_send_test_with_usb_com
           000000AF  Fradio_send_test_with_usb_com$FW   radio_send_test_with_usb_com
           000000AF  Frandom$EA$0$0                     random
           000000AF  Frandom$FWDATA$0$0                 random
           000000AF  Frandom_from_sernum$EA$0$0         random_from_sernum
           000000AF  Frandom_from_sernum$FWDATA$0$0     random_from_sernum
           000000AF  Ftime$EA$0$0                       time
           000000AF  Ftime$FWDATA$0$0                   time
           000000AF  Fusb$EA$0$0                        usb
           000000AF  Fusb$FWDATA$0$0                    usb
           000000AF  Fusb_cdc_acm$EA$0$0                usb_cdc_acm
           000000AF  Fusb_cdc_acm$FWDATA$0$0            usb_cdc_acm
           000000B1  Fboard$ENCDI$0$0                   board
           000000B1  Fdma$ENCDI$0$0                     dma
           000000B1  Fgreen_led$ENCDI$0$0               green_led
           000000B1  Fradio_mac$ENCDI$0$0               radio_mac
           000000B1  Fradio_queue$ENCDI$0$0             radio_queue
           000000B1  Fradio_registers$ENCDI$0$0         radio_registers
           000000B1  Fradio_send_test_with_usb_com$EN   radio_send_test_with_usb_com
           000000B1  Frandom$ENCDI$0$0                  random
           000000B1  Frandom_from_sernum$ENCDI$0$0      random_from_sernum
           000000B1  Ftime$ENCDI$0$0                    time
           000000B1  Fusb$ENCDI$0$0                     usb
           000000B1  Fusb_cdc_acm$ENCDI$0$0             usb_cdc_acm
ASxxxx Linker V02.00 + NoICE + sdld,  page 24.
Hexadecimal  [32-Bits]

Area                                    Addr        Size        Decimal Bytes (Attributes)
--------------------------------        ----        ----        ------- ----- ------------
.	.ABS.                             00000000    00000000 =           0. bytes (ABS,CON)

      Value  Global                              Global Defined In Module
      -----  --------------------------------   ------------------------
           000000B2  Fboard$ENCDO$0$0                   board
           000000B2  Fdma$ENCDO$0$0                     dma
           000000B2  Fgreen_led$ENCDO$0$0               green_led
           000000B2  Fradio_mac$ENCDO$0$0               radio_mac
           000000B2  Fradio_queue$ENCDO$0$0             radio_queue
           000000B2  Fradio_registers$ENCDO$0$0         radio_registers
           000000B2  Fradio_send_test_with_usb_com$EN   radio_send_test_with_usb_com
           000000B2  Frandom$ENCDO$0$0                  random
           000000B2  Frandom_from_sernum$ENCDO$0$0      random_from_sernum
           000000B2  Ftime$ENCDO$0$0                    time
           000000B2  Fusb$ENCDO$0$0                     usb
           000000B2  Fusb_cdc_acm$ENCDO$0$0             usb_cdc_acm
           000000B3  Fboard$ENCCS$0$0                   board
           000000B3  Fdma$ENCCS$0$0                     dma
           000000B3  Fgreen_led$ENCCS$0$0               green_led
           000000B3  Fradio_mac$ENCCS$0$0               radio_mac
           000000B3  Fradio_queue$ENCCS$0$0             radio_queue
           000000B3  Fradio_registers$ENCCS$0$0         radio_registers
           000000B3  Fradio_send_test_with_usb_com$EN   radio_send_test_with_usb_com
           000000B3  Frandom$ENCCS$0$0                  random
           000000B3  Frandom_from_sernum$ENCCS$0$0      random_from_sernum
           000000B3  Ftime$ENCCS$0$0                    time
           000000B3  Fusb$ENCCS$0$0                     usb
           000000B3  Fusb_cdc_acm$ENCCS$0$0             usb_cdc_acm
           000000B4  Fboard$ADCCON1$0$0                 board
           000000B4  Fdma$ADCCON1$0$0                   dma
           000000B4  Fgreen_led$ADCCON1$0$0             green_led
           000000B4  Fradio_mac$ADCCON1$0$0             radio_mac
           000000B4  Fradio_queue$ADCCON1$0$0           radio_queue
           000000B4  Fradio_registers$ADCCON1$0$0       radio_registers
           000000B4  Fradio_send_test_with_usb_com$AD   radio_send_test_with_usb_com
           000000B4  Frandom$ADCCON1$0$0                random
           000000B4  Frandom_from_sernum$ADCCON1$0$0    random_from_sernum
           000000B4  Ftime$ADCCON1$0$0                  time
           000000B4  Fusb$ADCCON1$0$0                   usb
           000000B4  Fusb_cdc_acm$ADCCON1$0$0           usb_cdc_acm
           000000B5  Fboard$ADCCON2$0$0                 board
           000000B5  Fdma$ADCCON2$0$0                   dma
           000000B5  Fgreen_led$ADCCON2$0$0             green_led
           000000B5  Fradio_mac$ADCCON2$0$0             radio_mac
           000000B5  Fradio_queue$ADCCON2$0$0           radio_queue
           000000B5  Fradio_registers$ADCCON2$0$0       radio_registers
           000000B5  Fradio_send_test_with_usb_com$AD   radio_send_test_with_usb_com
           000000B5  Frandom$ADCCON2$0$0                random
           000000B5  Frandom_from_sernum$ADCCON2$0$0    random_from_sernum
           000000B5  Ftime$ADCCON2$0$0                  time
           000000B5  Fusb$ADCCON2$0$0                   usb
           000000B5  Fusb_cdc_acm$ADCCON2$0$0           usb_cdc_acm
           000000B6  Fboard$ADCCON3$0$0                 board
           000000B6  Fdma$ADCCON3$0$0                   dma
           000000B6  Fgreen_led$ADCCON3$0$0             green_led
ASxxxx Linker V02.00 + NoICE + sdld,  page 25.
Hexadecimal  [32-Bits]

Area                                    Addr        Size        Decimal Bytes (Attributes)
--------------------------------        ----        ----        ------- ----- ------------
.	.ABS.                             00000000    00000000 =           0. bytes (ABS,CON)

      Value  Global                              Global Defined In Module
      -----  --------------------------------   ------------------------
           000000B6  Fradio_mac$ADCCON3$0$0             radio_mac
           000000B6  Fradio_queue$ADCCON3$0$0           radio_queue
           000000B6  Fradio_registers$ADCCON3$0$0       radio_registers
           000000B6  Fradio_send_test_with_usb_com$AD   radio_send_test_with_usb_com
           000000B6  Frandom$ADCCON3$0$0                random
           000000B6  Frandom_from_sernum$ADCCON3$0$0    random_from_sernum
           000000B6  Ftime$ADCCON3$0$0                  time
           000000B6  Fusb$ADCCON3$0$0                   usb
           000000B6  Fusb_cdc_acm$ADCCON3$0$0           usb_cdc_acm
           000000B8  Fboard$DMAIE$0$0                   board
           000000B8  Fboard$IEN1$0$0                    board
           000000B8  Fdma$DMAIE$0$0                     dma
           000000B8  Fdma$IEN1$0$0                      dma
           000000B8  Fgreen_led$DMAIE$0$0               green_led
           000000B8  Fgreen_led$IEN1$0$0                green_led
           000000B8  Fradio_mac$DMAIE$0$0               radio_mac
           000000B8  Fradio_mac$IEN1$0$0                radio_mac
           000000B8  Fradio_queue$DMAIE$0$0             radio_queue
           000000B8  Fradio_queue$IEN1$0$0              radio_queue
           000000B8  Fradio_registers$DMAIE$0$0         radio_registers
           000000B8  Fradio_registers$IEN1$0$0          radio_registers
           000000B8  Fradio_send_test_with_usb_com$DM   radio_send_test_with_usb_com
           000000B8  Fradio_send_test_with_usb_com$IE   radio_send_test_with_usb_com
           000000B8  Frandom$DMAIE$0$0                  random
           000000B8  Frandom$IEN1$0$0                   random
           000000B8  Frandom_from_sernum$DMAIE$0$0      random_from_sernum
           000000B8  Frandom_from_sernum$IEN1$0$0       random_from_sernum
           000000B8  Ftime$DMAIE$0$0                    time
           000000B8  Ftime$IEN1$0$0                     time
           000000B8  Fusb$DMAIE$0$0                     usb
           000000B8  Fusb$IEN1$0$0                      usb
           000000B8  Fusb_cdc_acm$DMAIE$0$0             usb_cdc_acm
           000000B8  Fusb_cdc_acm$IEN1$0$0              usb_cdc_acm
           000000B9  Fboard$IP1$0$0                     board
           000000B9  Fboard$T1IE$0$0                    board
           000000B9  Fdma$IP1$0$0                       dma
           000000B9  Fdma$T1IE$0$0                      dma
           000000B9  Fgreen_led$IP1$0$0                 green_led
           000000B9  Fgreen_led$T1IE$0$0                green_led
           000000B9  Fradio_mac$IP1$0$0                 radio_mac
           000000B9  Fradio_mac$T1IE$0$0                radio_mac
           000000B9  Fradio_queue$IP1$0$0               radio_queue
           000000B9  Fradio_queue$T1IE$0$0              radio_queue
           000000B9  Fradio_registers$IP1$0$0           radio_registers
           000000B9  Fradio_registers$T1IE$0$0          radio_registers
           000000B9  Fradio_send_test_with_usb_com$IP   radio_send_test_with_usb_com
           000000B9  Fradio_send_test_with_usb_com$T1   radio_send_test_with_usb_com
           000000B9  Frandom$IP1$0$0                    random
           000000B9  Frandom$T1IE$0$0                   random
           000000B9  Frandom_from_sernum$IP1$0$0        random_from_sernum
           000000B9  Frandom_from_sernum$T1IE$0$0       random_from_sernum
ASxxxx Linker V02.00 + NoICE + sdld,  page 26.
Hexadecimal  [32-Bits]

Area                                    Addr        Size        Decimal Bytes (Attributes)
--------------------------------        ----        ----        ------- ----- ------------
.	.ABS.                             00000000    00000000 =           0. bytes (ABS,CON)

      Value  Global                              Global Defined In Module
      -----  --------------------------------   ------------------------
           000000B9  Ftime$IP1$0$0                      time
           000000B9  Ftime$T1IE$0$0                     time
           000000B9  Fusb$IP1$0$0                       usb
           000000B9  Fusb$T1IE$0$0                      usb
           000000B9  Fusb_cdc_acm$IP1$0$0               usb_cdc_acm
           000000B9  Fusb_cdc_acm$T1IE$0$0              usb_cdc_acm
           000000BA  Fboard$ADCL$0$0                    board
           000000BA  Fboard$T2IE$0$0                    board
           000000BA  Fdma$ADCL$0$0                      dma
           000000BA  Fdma$T2IE$0$0                      dma
           000000BA  Fgreen_led$ADCL$0$0                green_led
           000000BA  Fgreen_led$T2IE$0$0                green_led
           000000BA  Fradio_mac$ADCL$0$0                radio_mac
           000000BA  Fradio_mac$T2IE$0$0                radio_mac
           000000BA  Fradio_queue$ADCL$0$0              radio_queue
           000000BA  Fradio_queue$T2IE$0$0              radio_queue
           000000BA  Fradio_registers$ADCL$0$0          radio_registers
           000000BA  Fradio_registers$T2IE$0$0          radio_registers
           000000BA  Fradio_send_test_with_usb_com$AD   radio_send_test_with_usb_com
           000000BA  Fradio_send_test_with_usb_com$T2   radio_send_test_with_usb_com
           000000BA  Frandom$ADCL$0$0                   random
           000000BA  Frandom$T2IE$0$0                   random
           000000BA  Frandom_from_sernum$ADCL$0$0       random_from_sernum
           000000BA  Frandom_from_sernum$T2IE$0$0       random_from_sernum
           000000BA  Ftime$ADCL$0$0                     time
           000000BA  Ftime$T2IE$0$0                     time
           000000BA  Fusb$ADCL$0$0                      usb
           000000BA  Fusb$T2IE$0$0                      usb
           000000BA  Fusb_cdc_acm$ADCL$0$0              usb_cdc_acm
           000000BA  Fusb_cdc_acm$T2IE$0$0              usb_cdc_acm
           000000BB  Fboard$ADCH$0$0                    board
           000000BB  Fboard$T3IE$0$0                    board
           000000BB  Fdma$ADCH$0$0                      dma
           000000BB  Fdma$T3IE$0$0                      dma
           000000BB  Fgreen_led$ADCH$0$0                green_led
           000000BB  Fgreen_led$T3IE$0$0                green_led
           000000BB  Fradio_mac$ADCH$0$0                radio_mac
           000000BB  Fradio_mac$T3IE$0$0                radio_mac
           000000BB  Fradio_queue$ADCH$0$0              radio_queue
           000000BB  Fradio_queue$T3IE$0$0              radio_queue
           000000BB  Fradio_registers$ADCH$0$0          radio_registers
           000000BB  Fradio_registers$T3IE$0$0          radio_registers
           000000BB  Fradio_send_test_with_usb_com$AD   radio_send_test_with_usb_com
           000000BB  Fradio_send_test_with_usb_com$T3   radio_send_test_with_usb_com
           000000BB  Frandom$ADCH$0$0                   random
           000000BB  Frandom$T3IE$0$0                   random
           000000BB  Frandom_from_sernum$ADCH$0$0       random_from_sernum
           000000BB  Frandom_from_sernum$T3IE$0$0       random_from_sernum
           000000BB  Ftime$ADCH$0$0                     time
           000000BB  Ftime$T3IE$0$0                     time
           000000BB  Fusb$ADCH$0$0                      usb
ASxxxx Linker V02.00 + NoICE + sdld,  page 27.
Hexadecimal  [32-Bits]

Area                                    Addr        Size        Decimal Bytes (Attributes)
--------------------------------        ----        ----        ------- ----- ------------
.	.ABS.                             00000000    00000000 =           0. bytes (ABS,CON)

      Value  Global                              Global Defined In Module
      -----  --------------------------------   ------------------------
           000000BB  Fusb$T3IE$0$0                      usb
           000000BB  Fusb_cdc_acm$ADCH$0$0              usb_cdc_acm
           000000BB  Fusb_cdc_acm$T3IE$0$0              usb_cdc_acm
           000000BC  Fboard$RNDL$0$0                    board
           000000BC  Fboard$T4IE$0$0                    board
           000000BC  Fdma$RNDL$0$0                      dma
           000000BC  Fdma$T4IE$0$0                      dma
           000000BC  Fgreen_led$RNDL$0$0                green_led
           000000BC  Fgreen_led$T4IE$0$0                green_led
           000000BC  Fradio_mac$RNDL$0$0                radio_mac
           000000BC  Fradio_mac$T4IE$0$0                radio_mac
           000000BC  Fradio_queue$RNDL$0$0              radio_queue
           000000BC  Fradio_queue$T4IE$0$0              radio_queue
           000000BC  Fradio_registers$RNDL$0$0          radio_registers
           000000BC  Fradio_registers$T4IE$0$0          radio_registers
           000000BC  Fradio_send_test_with_usb_com$RN   radio_send_test_with_usb_com
           000000BC  Fradio_send_test_with_usb_com$T4   radio_send_test_with_usb_com
           000000BC  Frandom$RNDL$0$0                   random
           000000BC  Frandom$T4IE$0$0                   random
           000000BC  Frandom_from_sernum$RNDL$0$0       random_from_sernum
           000000BC  Frandom_from_sernum$T4IE$0$0       random_from_sernum
           000000BC  Ftime$RNDL$0$0                     time
           000000BC  Ftime$T4IE$0$0                     time
           000000BC  Fusb$RNDL$0$0                      usb
           000000BC  Fusb$T4IE$0$0                      usb
           000000BC  Fusb_cdc_acm$RNDL$0$0              usb_cdc_acm
           000000BC  Fusb_cdc_acm$T4IE$0$0              usb_cdc_acm
           000000BD  Fboard$P0IE$0$0                    board
           000000BD  Fboard$RNDH$0$0                    board
           000000BD  Fdma$P0IE$0$0                      dma
           000000BD  Fdma$RNDH$0$0                      dma
           000000BD  Fgreen_led$P0IE$0$0                green_led
           000000BD  Fgreen_led$RNDH$0$0                green_led
           000000BD  Fradio_mac$P0IE$0$0                radio_mac
           000000BD  Fradio_mac$RNDH$0$0                radio_mac
           000000BD  Fradio_queue$P0IE$0$0              radio_queue
           000000BD  Fradio_queue$RNDH$0$0              radio_queue
           000000BD  Fradio_registers$P0IE$0$0          radio_registers
           000000BD  Fradio_registers$RNDH$0$0          radio_registers
           000000BD  Fradio_send_test_with_usb_com$P0   radio_send_test_with_usb_com
           000000BD  Fradio_send_test_with_usb_com$RN   radio_send_test_with_usb_com
           000000BD  Frandom$P0IE$0$0                   random
           000000BD  Frandom$RNDH$0$0                   random
           000000BD  Frandom_from_sernum$P0IE$0$0       random_from_sernum
           000000BD  Frandom_from_sernum$RNDH$0$0       random_from_sernum
           000000BD  Ftime$P0IE$0$0                     time
           000000BD  Ftime$RNDH$0$0                     time
           000000BD  Fusb$P0IE$0$0                      usb
           000000BD  Fusb$RNDH$0$0                      usb
           000000BD  Fusb_cdc_acm$P0IE$0$0              usb_cdc_acm
           000000BD  Fusb_cdc_acm$RNDH$0$0              usb_cdc_acm
ASxxxx Linker V02.00 + NoICE + sdld,  page 28.
Hexadecimal  [32-Bits]

Area                                    Addr        Size        Decimal Bytes (Attributes)
--------------------------------        ----        ----        ------- ----- ------------
.	.ABS.                             00000000    00000000 =           0. bytes (ABS,CON)

      Value  Global                              Global Defined In Module
      -----  --------------------------------   ------------------------
           000000BE  Fboard$SLEEP$0$0                   board
           000000BE  Fboard$_IEN16$0$0                  board
           000000BE  Fdma$SLEEP$0$0                     dma
           000000BE  Fdma$_IEN16$0$0                    dma
           000000BE  Fgreen_led$SLEEP$0$0               green_led
           000000BE  Fgreen_led$_IEN16$0$0              green_led
           000000BE  Fradio_mac$SLEEP$0$0               radio_mac
           000000BE  Fradio_mac$_IEN16$0$0              radio_mac
           000000BE  Fradio_queue$SLEEP$0$0             radio_queue
           000000BE  Fradio_queue$_IEN16$0$0            radio_queue
           000000BE  Fradio_registers$SLEEP$0$0         radio_registers
           000000BE  Fradio_registers$_IEN16$0$0        radio_registers
           000000BE  Fradio_send_test_with_usb_com$SL   radio_send_test_with_usb_com
           000000BE  Fradio_send_test_with_usb_com$_I   radio_send_test_with_usb_com
           000000BE  Frandom$SLEEP$0$0                  random
           000000BE  Frandom$_IEN16$0$0                 random
           000000BE  Frandom_from_sernum$SLEEP$0$0      random_from_sernum
           000000BE  Frandom_from_sernum$_IEN16$0$0     random_from_sernum
           000000BE  Ftime$SLEEP$0$0                    time
           000000BE  Ftime$_IEN16$0$0                   time
           000000BE  Fusb$SLEEP$0$0                     usb
           000000BE  Fusb$_IEN16$0$0                    usb
           000000BE  Fusb_cdc_acm$SLEEP$0$0             usb_cdc_acm
           000000BE  Fusb_cdc_acm$_IEN16$0$0            usb_cdc_acm
           000000BF  Fboard$_IEN17$0$0                  board
           000000BF  Fdma$_IEN17$0$0                    dma
           000000BF  Fgreen_led$_IEN17$0$0              green_led
           000000BF  Fradio_mac$_IEN17$0$0              radio_mac
           000000BF  Fradio_queue$_IEN17$0$0            radio_queue
           000000BF  Fradio_registers$_IEN17$0$0        radio_registers
           000000BF  Fradio_send_test_with_usb_com$_I   radio_send_test_with_usb_com
           000000BF  Frandom$_IEN17$0$0                 random
           000000BF  Frandom_from_sernum$_IEN17$0$0     random_from_sernum
           000000BF  Ftime$_IEN17$0$0                   time
           000000BF  Fusb$_IEN17$0$0                    usb
           000000BF  Fusb_cdc_acm$_IEN17$0$0            usb_cdc_acm
           000000C0  Fboard$DMAIF$0$0                   board
           000000C0  Fboard$IRCON$0$0                   board
           000000C0  Fdma$DMAIF$0$0                     dma
           000000C0  Fdma$IRCON$0$0                     dma
           000000C0  Fgreen_led$DMAIF$0$0               green_led
           000000C0  Fgreen_led$IRCON$0$0               green_led
           000000C0  Fradio_mac$DMAIF$0$0               radio_mac
           000000C0  Fradio_mac$IRCON$0$0               radio_mac
           000000C0  Fradio_queue$DMAIF$0$0             radio_queue
           000000C0  Fradio_queue$IRCON$0$0             radio_queue
           000000C0  Fradio_registers$DMAIF$0$0         radio_registers
           000000C0  Fradio_registers$IRCON$0$0         radio_registers
           000000C0  Fradio_send_test_with_usb_com$DM   radio_send_test_with_usb_com
           000000C0  Fradio_send_test_with_usb_com$IR   radio_send_test_with_usb_com
           000000C0  Frandom$DMAIF$0$0                  random
ASxxxx Linker V02.00 + NoICE + sdld,  page 29.
Hexadecimal  [32-Bits]

Area                                    Addr        Size        Decimal Bytes (Attributes)
--------------------------------        ----        ----        ------- ----- ------------
.	.ABS.                             00000000    00000000 =           0. bytes (ABS,CON)

      Value  Global                              Global Defined In Module
      -----  --------------------------------   ------------------------
           000000C0  Frandom$IRCON$0$0                  random
           000000C0  Frandom_from_sernum$DMAIF$0$0      random_from_sernum
           000000C0  Frandom_from_sernum$IRCON$0$0      random_from_sernum
           000000C0  Ftime$DMAIF$0$0                    time
           000000C0  Ftime$IRCON$0$0                    time
           000000C0  Fusb$DMAIF$0$0                     usb
           000000C0  Fusb$IRCON$0$0                     usb
           000000C0  Fusb_cdc_acm$DMAIF$0$0             usb_cdc_acm
           000000C0  Fusb_cdc_acm$IRCON$0$0             usb_cdc_acm
           000000C1  Fboard$T1IF$0$0                    board
           000000C1  Fboard$U0DBUF$0$0                  board
           000000C1  Fdma$T1IF$0$0                      dma
           000000C1  Fdma$U0DBUF$0$0                    dma
           000000C1  Fgreen_led$T1IF$0$0                green_led
           000000C1  Fgreen_led$U0DBUF$0$0              green_led
           000000C1  Fradio_mac$T1IF$0$0                radio_mac
           000000C1  Fradio_mac$U0DBUF$0$0              radio_mac
           000000C1  Fradio_queue$T1IF$0$0              radio_queue
           000000C1  Fradio_queue$U0DBUF$0$0            radio_queue
           000000C1  Fradio_registers$T1IF$0$0          radio_registers
           000000C1  Fradio_registers$U0DBUF$0$0        radio_registers
           000000C1  Fradio_send_test_with_usb_com$T1   radio_send_test_with_usb_com
           000000C1  Fradio_send_test_with_usb_com$U0   radio_send_test_with_usb_com
           000000C1  Frandom$T1IF$0$0                   random
           000000C1  Frandom$U0DBUF$0$0                 random
           000000C1  Frandom_from_sernum$T1IF$0$0       random_from_sernum
           000000C1  Frandom_from_sernum$U0DBUF$0$0     random_from_sernum
           000000C1  Ftime$T1IF$0$0                     time
           000000C1  Ftime$U0DBUF$0$0                   time
           000000C1  Fusb$T1IF$0$0                      usb
           000000C1  Fusb$U0DBUF$0$0                    usb
           000000C1  Fusb_cdc_acm$T1IF$0$0              usb_cdc_acm
           000000C1  Fusb_cdc_acm$U0DBUF$0$0            usb_cdc_acm
           000000C2  Fboard$T2IF$0$0                    board
           000000C2  Fboard$U0BAUD$0$0                  board
           000000C2  Fdma$T2IF$0$0                      dma
           000000C2  Fdma$U0BAUD$0$0                    dma
           000000C2  Fgreen_led$T2IF$0$0                green_led
           000000C2  Fgreen_led$U0BAUD$0$0              green_led
           000000C2  Fradio_mac$T2IF$0$0                radio_mac
           000000C2  Fradio_mac$U0BAUD$0$0              radio_mac
           000000C2  Fradio_queue$T2IF$0$0              radio_queue
           000000C2  Fradio_queue$U0BAUD$0$0            radio_queue
           000000C2  Fradio_registers$T2IF$0$0          radio_registers
           000000C2  Fradio_registers$U0BAUD$0$0        radio_registers
           000000C2  Fradio_send_test_with_usb_com$T2   radio_send_test_with_usb_com
           000000C2  Fradio_send_test_with_usb_com$U0   radio_send_test_with_usb_com
           000000C2  Frandom$T2IF$0$0                   random
           000000C2  Frandom$U0BAUD$0$0                 random
           000000C2  Frandom_from_sernum$T2IF$0$0       random_from_sernum
           000000C2  Frandom_from_sernum$U0BAUD$0$0     random_from_sernum
ASxxxx Linker V02.00 + NoICE + sdld,  page 30.
Hexadecimal  [32-Bits]

Area                                    Addr        Size        Decimal Bytes (Attributes)
--------------------------------        ----        ----        ------- ----- ------------
.	.ABS.                             00000000    00000000 =           0. bytes (ABS,CON)

      Value  Global                              Global Defined In Module
      -----  --------------------------------   ------------------------
           000000C2  Ftime$T2IF$0$0                     time
           000000C2  Ftime$U0BAUD$0$0                   time
           000000C2  Fusb$T2IF$0$0                      usb
           000000C2  Fusb$U0BAUD$0$0                    usb
           000000C2  Fusb_cdc_acm$T2IF$0$0              usb_cdc_acm
           000000C2  Fusb_cdc_acm$U0BAUD$0$0            usb_cdc_acm
           000000C3  Fboard$T3IF$0$0                    board
           000000C3  Fdma$T3IF$0$0                      dma
           000000C3  Fgreen_led$T3IF$0$0                green_led
           000000C3  Fradio_mac$T3IF$0$0                radio_mac
           000000C3  Fradio_queue$T3IF$0$0              radio_queue
           000000C3  Fradio_registers$T3IF$0$0          radio_registers
           000000C3  Fradio_send_test_with_usb_com$T3   radio_send_test_with_usb_com
           000000C3  Frandom$T3IF$0$0                   random
           000000C3  Frandom_from_sernum$T3IF$0$0       random_from_sernum
           000000C3  Ftime$T3IF$0$0                     time
           000000C3  Fusb$T3IF$0$0                      usb
           000000C3  Fusb_cdc_acm$T3IF$0$0              usb_cdc_acm
           000000C4  Fboard$T4IF$0$0                    board
           000000C4  Fboard$U0UCR$0$0                   board
           000000C4  Fdma$T4IF$0$0                      dma
           000000C4  Fdma$U0UCR$0$0                     dma
           000000C4  Fgreen_led$T4IF$0$0                green_led
           000000C4  Fgreen_led$U0UCR$0$0               green_led
           000000C4  Fradio_mac$T4IF$0$0                radio_mac
           000000C4  Fradio_mac$U0UCR$0$0               radio_mac
           000000C4  Fradio_queue$T4IF$0$0              radio_queue
           000000C4  Fradio_queue$U0UCR$0$0             radio_queue
           000000C4  Fradio_registers$T4IF$0$0          radio_registers
           000000C4  Fradio_registers$U0UCR$0$0         radio_registers
           000000C4  Fradio_send_test_with_usb_com$T4   radio_send_test_with_usb_com
           000000C4  Fradio_send_test_with_usb_com$U0   radio_send_test_with_usb_com
           000000C4  Frandom$T4IF$0$0                   random
           000000C4  Frandom$U0UCR$0$0                  random
           000000C4  Frandom_from_sernum$T4IF$0$0       random_from_sernum
           000000C4  Frandom_from_sernum$U0UCR$0$0      random_from_sernum
           000000C4  Ftime$T4IF$0$0                     time
           000000C4  Ftime$U0UCR$0$0                    time
           000000C4  Fusb$T4IF$0$0                      usb
           000000C4  Fusb$U0UCR$0$0                     usb
           000000C4  Fusb_cdc_acm$T4IF$0$0              usb_cdc_acm
           000000C4  Fusb_cdc_acm$U0UCR$0$0             usb_cdc_acm
           000000C5  Fboard$P0IF$0$0                    board
           000000C5  Fboard$U0GCR$0$0                   board
           000000C5  Fdma$P0IF$0$0                      dma
           000000C5  Fdma$U0GCR$0$0                     dma
           000000C5  Fgreen_led$P0IF$0$0                green_led
           000000C5  Fgreen_led$U0GCR$0$0               green_led
           000000C5  Fradio_mac$P0IF$0$0                radio_mac
           000000C5  Fradio_mac$U0GCR$0$0               radio_mac
           000000C5  Fradio_queue$P0IF$0$0              radio_queue
ASxxxx Linker V02.00 + NoICE + sdld,  page 31.
Hexadecimal  [32-Bits]

Area                                    Addr        Size        Decimal Bytes (Attributes)
--------------------------------        ----        ----        ------- ----- ------------
.	.ABS.                             00000000    00000000 =           0. bytes (ABS,CON)

      Value  Global                              Global Defined In Module
      -----  --------------------------------   ------------------------
           000000C5  Fradio_queue$U0GCR$0$0             radio_queue
           000000C5  Fradio_registers$P0IF$0$0          radio_registers
           000000C5  Fradio_registers$U0GCR$0$0         radio_registers
           000000C5  Fradio_send_test_with_usb_com$P0   radio_send_test_with_usb_com
           000000C5  Fradio_send_test_with_usb_com$U0   radio_send_test_with_usb_com
           000000C5  Frandom$P0IF$0$0                   random
           000000C5  Frandom$U0GCR$0$0                  random
           000000C5  Frandom_from_sernum$P0IF$0$0       random_from_sernum
           000000C5  Frandom_from_sernum$U0GCR$0$0      random_from_sernum
           000000C5  Ftime$P0IF$0$0                     time
           000000C5  Ftime$U0GCR$0$0                    time
           000000C5  Fusb$P0IF$0$0                      usb
           000000C5  Fusb$U0GCR$0$0                     usb
           000000C5  Fusb_cdc_acm$P0IF$0$0              usb_cdc_acm
           000000C5  Fusb_cdc_acm$U0GCR$0$0             usb_cdc_acm
           000000C6  Fboard$CLKCON$0$0                  board
           000000C6  Fboard$_IRCON6$0$0                 board
           000000C6  Fdma$CLKCON$0$0                    dma
           000000C6  Fdma$_IRCON6$0$0                   dma
           000000C6  Fgreen_led$CLKCON$0$0              green_led
           000000C6  Fgreen_led$_IRCON6$0$0             green_led
           000000C6  Fradio_mac$CLKCON$0$0              radio_mac
           000000C6  Fradio_mac$_IRCON6$0$0             radio_mac
           000000C6  Fradio_queue$CLKCON$0$0            radio_queue
           000000C6  Fradio_queue$_IRCON6$0$0           radio_queue
           000000C6  Fradio_registers$CLKCON$0$0        radio_registers
           000000C6  Fradio_registers$_IRCON6$0$0       radio_registers
           000000C6  Fradio_send_test_with_usb_com$CL   radio_send_test_with_usb_com
           000000C6  Fradio_send_test_with_usb_com$_I   radio_send_test_with_usb_com
           000000C6  Frandom$CLKCON$0$0                 random
           000000C6  Frandom$_IRCON6$0$0                random
           000000C6  Frandom_from_sernum$CLKCON$0$0     random_from_sernum
           000000C6  Frandom_from_sernum$_IRCON6$0$0    random_from_sernum
           000000C6  Ftime$CLKCON$0$0                   time
           000000C6  Ftime$_IRCON6$0$0                  time
           000000C6  Fusb$CLKCON$0$0                    usb
           000000C6  Fusb$_IRCON6$0$0                   usb
           000000C6  Fusb_cdc_acm$CLKCON$0$0            usb_cdc_acm
           000000C6  Fusb_cdc_acm$_IRCON6$0$0           usb_cdc_acm
           000000C7  Fboard$MEMCTR$0$0                  board
           000000C7  Fboard$STIF$0$0                    board
           000000C7  Fdma$MEMCTR$0$0                    dma
           000000C7  Fdma$STIF$0$0                      dma
           000000C7  Fgreen_led$MEMCTR$0$0              green_led
           000000C7  Fgreen_led$STIF$0$0                green_led
           000000C7  Fradio_mac$MEMCTR$0$0              radio_mac
           000000C7  Fradio_mac$STIF$0$0                radio_mac
           000000C7  Fradio_queue$MEMCTR$0$0            radio_queue
           000000C7  Fradio_queue$STIF$0$0              radio_queue
           000000C7  Fradio_registers$MEMCTR$0$0        radio_registers
           000000C7  Fradio_registers$STIF$0$0          radio_registers
ASxxxx Linker V02.00 + NoICE + sdld,  page 32.
Hexadecimal  [32-Bits]

Area                                    Addr        Size        Decimal Bytes (Attributes)
--------------------------------        ----        ----        ------- ----- ------------
.	.ABS.                             00000000    00000000 =           0. bytes (ABS,CON)

      Value  Global                              Global Defined In Module
      -----  --------------------------------   ------------------------
           000000C7  Fradio_send_test_with_usb_com$ME   radio_send_test_with_usb_com
           000000C7  Fradio_send_test_with_usb_com$ST   radio_send_test_with_usb_com
           000000C7  Frandom$MEMCTR$0$0                 random
           000000C7  Frandom$STIF$0$0                   random
           000000C7  Frandom_from_sernum$MEMCTR$0$0     random_from_sernum
           000000C7  Frandom_from_sernum$STIF$0$0       random_from_sernum
           000000C7  Ftime$MEMCTR$0$0                   time
           000000C7  Ftime$STIF$0$0                     time
           000000C7  Fusb$MEMCTR$0$0                    usb
           000000C7  Fusb$STIF$0$0                      usb
           000000C7  Fusb_cdc_acm$MEMCTR$0$0            usb_cdc_acm
           000000C7  Fusb_cdc_acm$STIF$0$0              usb_cdc_acm
           000000C9  Fboard$WDCTL$0$0                   board
           000000C9  Fdma$WDCTL$0$0                     dma
           000000C9  Fgreen_led$WDCTL$0$0               green_led
           000000C9  Fradio_mac$WDCTL$0$0               radio_mac
           000000C9  Fradio_queue$WDCTL$0$0             radio_queue
           000000C9  Fradio_registers$WDCTL$0$0         radio_registers
           000000C9  Fradio_send_test_with_usb_com$WD   radio_send_test_with_usb_com
           000000C9  Frandom$WDCTL$0$0                  random
           000000C9  Frandom_from_sernum$WDCTL$0$0      random_from_sernum
           000000C9  Ftime$WDCTL$0$0                    time
           000000C9  Fusb$WDCTL$0$0                     usb
           000000C9  Fusb_cdc_acm$WDCTL$0$0             usb_cdc_acm
           000000CA  Fboard$T3CNT$0$0                   board
           000000CA  Fdma$T3CNT$0$0                     dma
           000000CA  Fgreen_led$T3CNT$0$0               green_led
           000000CA  Fradio_mac$T3CNT$0$0               radio_mac
           000000CA  Fradio_queue$T3CNT$0$0             radio_queue
           000000CA  Fradio_registers$T3CNT$0$0         radio_registers
           000000CA  Fradio_send_test_with_usb_com$T3   radio_send_test_with_usb_com
           000000CA  Frandom$T3CNT$0$0                  random
           000000CA  Frandom_from_sernum$T3CNT$0$0      random_from_sernum
           000000CA  Ftime$T3CNT$0$0                    time
           000000CA  Fusb$T3CNT$0$0                     usb
           000000CA  Fusb_cdc_acm$T3CNT$0$0             usb_cdc_acm
           000000CB  Fboard$T3CTL$0$0                   board
           000000CB  Fdma$T3CTL$0$0                     dma
           000000CB  Fgreen_led$T3CTL$0$0               green_led
           000000CB  Fradio_mac$T3CTL$0$0               radio_mac
           000000CB  Fradio_queue$T3CTL$0$0             radio_queue
           000000CB  Fradio_registers$T3CTL$0$0         radio_registers
           000000CB  Fradio_send_test_with_usb_com$T3   radio_send_test_with_usb_com
           000000CB  Frandom$T3CTL$0$0                  random
           000000CB  Frandom_from_sernum$T3CTL$0$0      random_from_sernum
           000000CB  Ftime$T3CTL$0$0                    time
           000000CB  Fusb$T3CTL$0$0                     usb
           000000CB  Fusb_cdc_acm$T3CTL$0$0             usb_cdc_acm
           000000CC  Fboard$T3CCTL0$0$0                 board
           000000CC  Fdma$T3CCTL0$0$0                   dma
           000000CC  Fgreen_led$T3CCTL0$0$0             green_led
ASxxxx Linker V02.00 + NoICE + sdld,  page 33.
Hexadecimal  [32-Bits]

Area                                    Addr        Size        Decimal Bytes (Attributes)
--------------------------------        ----        ----        ------- ----- ------------
.	.ABS.                             00000000    00000000 =           0. bytes (ABS,CON)

      Value  Global                              Global Defined In Module
      -----  --------------------------------   ------------------------
           000000CC  Fradio_mac$T3CCTL0$0$0             radio_mac
           000000CC  Fradio_queue$T3CCTL0$0$0           radio_queue
           000000CC  Fradio_registers$T3CCTL0$0$0       radio_registers
           000000CC  Fradio_send_test_with_usb_com$T3   radio_send_test_with_usb_com
           000000CC  Frandom$T3CCTL0$0$0                random
           000000CC  Frandom_from_sernum$T3CCTL0$0$0    random_from_sernum
           000000CC  Ftime$T3CCTL0$0$0                  time
           000000CC  Fusb$T3CCTL0$0$0                   usb
           000000CC  Fusb_cdc_acm$T3CCTL0$0$0           usb_cdc_acm
           000000CD  Fboard$T3CC0$0$0                   board
           000000CD  Fdma$T3CC0$0$0                     dma
           000000CD  Fgreen_led$T3CC0$0$0               green_led
           000000CD  Fradio_mac$T3CC0$0$0               radio_mac
           000000CD  Fradio_queue$T3CC0$0$0             radio_queue
           000000CD  Fradio_registers$T3CC0$0$0         radio_registers
           000000CD  Fradio_send_test_with_usb_com$T3   radio_send_test_with_usb_com
           000000CD  Frandom$T3CC0$0$0                  random
           000000CD  Frandom_from_sernum$T3CC0$0$0      random_from_sernum
           000000CD  Ftime$T3CC0$0$0                    time
           000000CD  Fusb$T3CC0$0$0                     usb
           000000CD  Fusb_cdc_acm$T3CC0$0$0             usb_cdc_acm
           000000CE  Fboard$T3CCTL1$0$0                 board
           000000CE  Fdma$T3CCTL1$0$0                   dma
           000000CE  Fgreen_led$T3CCTL1$0$0             green_led
           000000CE  Fradio_mac$T3CCTL1$0$0             radio_mac
           000000CE  Fradio_queue$T3CCTL1$0$0           radio_queue
           000000CE  Fradio_registers$T3CCTL1$0$0       radio_registers
           000000CE  Fradio_send_test_with_usb_com$T3   radio_send_test_with_usb_com
           000000CE  Frandom$T3CCTL1$0$0                random
           000000CE  Frandom_from_sernum$T3CCTL1$0$0    random_from_sernum
           000000CE  Ftime$T3CCTL1$0$0                  time
           000000CE  Fusb$T3CCTL1$0$0                   usb
           000000CE  Fusb_cdc_acm$T3CCTL1$0$0           usb_cdc_acm
           000000CF  Fboard$T3CC1$0$0                   board
           000000CF  Fdma$T3CC1$0$0                     dma
           000000CF  Fgreen_led$T3CC1$0$0               green_led
           000000CF  Fradio_mac$T3CC1$0$0               radio_mac
           000000CF  Fradio_queue$T3CC1$0$0             radio_queue
           000000CF  Fradio_registers$T3CC1$0$0         radio_registers
           000000CF  Fradio_send_test_with_usb_com$T3   radio_send_test_with_usb_com
           000000CF  Frandom$T3CC1$0$0                  random
           000000CF  Frandom_from_sernum$T3CC1$0$0      random_from_sernum
           000000CF  Ftime$T3CC1$0$0                    time
           000000CF  Fusb$T3CC1$0$0                     usb
           000000CF  Fusb_cdc_acm$T3CC1$0$0             usb_cdc_acm
           000000D0  Fboard$P$0$0                       board
           000000D0  Fboard$PSW$0$0                     board
           000000D0  Fdma$P$0$0                         dma
           000000D0  Fdma$PSW$0$0                       dma
           000000D0  Fgreen_led$P$0$0                   green_led
           000000D0  Fgreen_led$PSW$0$0                 green_led
ASxxxx Linker V02.00 + NoICE + sdld,  page 34.
Hexadecimal  [32-Bits]

Area                                    Addr        Size        Decimal Bytes (Attributes)
--------------------------------        ----        ----        ------- ----- ------------
.	.ABS.                             00000000    00000000 =           0. bytes (ABS,CON)

      Value  Global                              Global Defined In Module
      -----  --------------------------------   ------------------------
           000000D0  Fradio_mac$P$0$0                   radio_mac
           000000D0  Fradio_mac$PSW$0$0                 radio_mac
           000000D0  Fradio_queue$P$0$0                 radio_queue
           000000D0  Fradio_queue$PSW$0$0               radio_queue
           000000D0  Fradio_registers$P$0$0             radio_registers
           000000D0  Fradio_registers$PSW$0$0           radio_registers
           000000D0  Fradio_send_test_with_usb_com$P$   radio_send_test_with_usb_com
           000000D0  Fradio_send_test_with_usb_com$PS   radio_send_test_with_usb_com
           000000D0  Frandom$P$0$0                      random
           000000D0  Frandom$PSW$0$0                    random
           000000D0  Frandom_from_sernum$P$0$0          random_from_sernum
           000000D0  Frandom_from_sernum$PSW$0$0        random_from_sernum
           000000D0  Ftime$P$0$0                        time
           000000D0  Ftime$PSW$0$0                      time
           000000D0  Fusb$P$0$0                         usb
           000000D0  Fusb$PSW$0$0                       usb
           000000D0  Fusb_cdc_acm$P$0$0                 usb_cdc_acm
           000000D0  Fusb_cdc_acm$PSW$0$0               usb_cdc_acm
           000000D1  Fboard$DMAIRQ$0$0                  board
           000000D1  Fboard$F1$0$0                      board
           000000D1  Fdma$DMAIRQ$0$0                    dma
           000000D1  Fdma$F1$0$0                        dma
           000000D1  Fgreen_led$DMAIRQ$0$0              green_led
           000000D1  Fgreen_led$F1$0$0                  green_led
           000000D1  Fradio_mac$DMAIRQ$0$0              radio_mac
           000000D1  Fradio_mac$F1$0$0                  radio_mac
           000000D1  Fradio_queue$DMAIRQ$0$0            radio_queue
           000000D1  Fradio_queue$F1$0$0                radio_queue
           000000D1  Fradio_registers$DMAIRQ$0$0        radio_registers
           000000D1  Fradio_registers$F1$0$0            radio_registers
           000000D1  Fradio_send_test_with_usb_com$DM   radio_send_test_with_usb_com
           000000D1  Fradio_send_test_with_usb_com$F1   radio_send_test_with_usb_com
           000000D1  Frandom$DMAIRQ$0$0                 random
           000000D1  Frandom$F1$0$0                     random
           000000D1  Frandom_from_sernum$DMAIRQ$0$0     random_from_sernum
           000000D1  Frandom_from_sernum$F1$0$0         random_from_sernum
           000000D1  Ftime$DMAIRQ$0$0                   time
           000000D1  Ftime$F1$0$0                       time
           000000D1  Fusb$DMAIRQ$0$0                    usb
           000000D1  Fusb$F1$0$0                        usb
           000000D1  Fusb_cdc_acm$DMAIRQ$0$0            usb_cdc_acm
           000000D1  Fusb_cdc_acm$F1$0$0                usb_cdc_acm
           000000D2  Fboard$DMA1CFGL$0$0                board
           000000D2  Fboard$OV$0$0                      board
           000000D2  Fdma$DMA1CFGL$0$0                  dma
           000000D2  Fdma$OV$0$0                        dma
           000000D2  Fgreen_led$DMA1CFGL$0$0            green_led
           000000D2  Fgreen_led$OV$0$0                  green_led
           000000D2  Fradio_mac$DMA1CFGL$0$0            radio_mac
           000000D2  Fradio_mac$OV$0$0                  radio_mac
           000000D2  Fradio_queue$DMA1CFGL$0$0          radio_queue
ASxxxx Linker V02.00 + NoICE + sdld,  page 35.
Hexadecimal  [32-Bits]

Area                                    Addr        Size        Decimal Bytes (Attributes)
--------------------------------        ----        ----        ------- ----- ------------
.	.ABS.                             00000000    00000000 =           0. bytes (ABS,CON)

      Value  Global                              Global Defined In Module
      -----  --------------------------------   ------------------------
           000000D2  Fradio_queue$OV$0$0                radio_queue
           000000D2  Fradio_registers$DMA1CFGL$0$0      radio_registers
           000000D2  Fradio_registers$OV$0$0            radio_registers
           000000D2  Fradio_send_test_with_usb_com$DM   radio_send_test_with_usb_com
           000000D2  Fradio_send_test_with_usb_com$OV   radio_send_test_with_usb_com
           000000D2  Frandom$DMA1CFGL$0$0               random
           000000D2  Frandom$OV$0$0                     random
           000000D2  Frandom_from_sernum$DMA1CFGL$0$0   random_from_sernum
           000000D2  Frandom_from_sernum$OV$0$0         random_from_sernum
           000000D2  Ftime$DMA1CFGL$0$0                 time
           000000D2  Ftime$OV$0$0                       time
           000000D2  Fusb$DMA1CFGL$0$0                  usb
           000000D2  Fusb$OV$0$0                        usb
           000000D2  Fusb_cdc_acm$DMA1CFGL$0$0          usb_cdc_acm
           000000D2  Fusb_cdc_acm$OV$0$0                usb_cdc_acm
           000000D3  Fboard$DMA1CFGH$0$0                board
           000000D3  Fboard$RS0$0$0                     board
           000000D3  Fdma$DMA1CFGH$0$0                  dma
           000000D3  Fdma$RS0$0$0                       dma
           000000D3  Fgreen_led$DMA1CFGH$0$0            green_led
           000000D3  Fgreen_led$RS0$0$0                 green_led
           000000D3  Fradio_mac$DMA1CFGH$0$0            radio_mac
           000000D3  Fradio_mac$RS0$0$0                 radio_mac
           000000D3  Fradio_queue$DMA1CFGH$0$0          radio_queue
           000000D3  Fradio_queue$RS0$0$0               radio_queue
           000000D3  Fradio_registers$DMA1CFGH$0$0      radio_registers
           000000D3  Fradio_registers$RS0$0$0           radio_registers
           000000D3  Fradio_send_test_with_usb_com$DM   radio_send_test_with_usb_com
           000000D3  Fradio_send_test_with_usb_com$RS   radio_send_test_with_usb_com
           000000D3  Frandom$DMA1CFGH$0$0               random
           000000D3  Frandom$RS0$0$0                    random
           000000D3  Frandom_from_sernum$DMA1CFGH$0$0   random_from_sernum
           000000D3  Frandom_from_sernum$RS0$0$0        random_from_sernum
           000000D3  Ftime$DMA1CFGH$0$0                 time
           000000D3  Ftime$RS0$0$0                      time
           000000D3  Fusb$DMA1CFGH$0$0                  usb
           000000D3  Fusb$RS0$0$0                       usb
           000000D3  Fusb_cdc_acm$DMA1CFGH$0$0          usb_cdc_acm
           000000D3  Fusb_cdc_acm$RS0$0$0               usb_cdc_acm
           000000D4  Fboard$DMA0CFGL$0$0                board
           000000D4  Fboard$RS1$0$0                     board
           000000D4  Fdma$DMA0CFGL$0$0                  dma
           000000D4  Fdma$RS1$0$0                       dma
           000000D4  Fgreen_led$DMA0CFGL$0$0            green_led
           000000D4  Fgreen_led$RS1$0$0                 green_led
           000000D4  Fradio_mac$DMA0CFGL$0$0            radio_mac
           000000D4  Fradio_mac$RS1$0$0                 radio_mac
           000000D4  Fradio_queue$DMA0CFGL$0$0          radio_queue
           000000D4  Fradio_queue$RS1$0$0               radio_queue
           000000D4  Fradio_registers$DMA0CFGL$0$0      radio_registers
           000000D4  Fradio_registers$RS1$0$0           radio_registers
ASxxxx Linker V02.00 + NoICE + sdld,  page 36.
Hexadecimal  [32-Bits]

Area                                    Addr        Size        Decimal Bytes (Attributes)
--------------------------------        ----        ----        ------- ----- ------------
.	.ABS.                             00000000    00000000 =           0. bytes (ABS,CON)

      Value  Global                              Global Defined In Module
      -----  --------------------------------   ------------------------
           000000D4  Fradio_send_test_with_usb_com$DM   radio_send_test_with_usb_com
           000000D4  Fradio_send_test_with_usb_com$RS   radio_send_test_with_usb_com
           000000D4  Frandom$DMA0CFGL$0$0               random
           000000D4  Frandom$RS1$0$0                    random
           000000D4  Frandom_from_sernum$DMA0CFGL$0$0   random_from_sernum
           000000D4  Frandom_from_sernum$RS1$0$0        random_from_sernum
           000000D4  Ftime$DMA0CFGL$0$0                 time
           000000D4  Ftime$RS1$0$0                      time
           000000D4  Fusb$DMA0CFGL$0$0                  usb
           000000D4  Fusb$RS1$0$0                       usb
           000000D4  Fusb_cdc_acm$DMA0CFGL$0$0          usb_cdc_acm
           000000D4  Fusb_cdc_acm$RS1$0$0               usb_cdc_acm
           000000D5  Fboard$DMA0CFGH$0$0                board
           000000D5  Fboard$F0$0$0                      board
           000000D5  Fdma$DMA0CFGH$0$0                  dma
           000000D5  Fdma$F0$0$0                        dma
           000000D5  Fgreen_led$DMA0CFGH$0$0            green_led
           000000D5  Fgreen_led$F0$0$0                  green_led
           000000D5  Fradio_mac$DMA0CFGH$0$0            radio_mac
           000000D5  Fradio_mac$F0$0$0                  radio_mac
           000000D5  Fradio_queue$DMA0CFGH$0$0          radio_queue
           000000D5  Fradio_queue$F0$0$0                radio_queue
           000000D5  Fradio_registers$DMA0CFGH$0$0      radio_registers
           000000D5  Fradio_registers$F0$0$0            radio_registers
           000000D5  Fradio_send_test_with_usb_com$DM   radio_send_test_with_usb_com
           000000D5  Fradio_send_test_with_usb_com$F0   radio_send_test_with_usb_com
           000000D5  Frandom$DMA0CFGH$0$0               random
           000000D5  Frandom$F0$0$0                     random
           000000D5  Frandom_from_sernum$DMA0CFGH$0$0   random_from_sernum
           000000D5  Frandom_from_sernum$F0$0$0         random_from_sernum
           000000D5  Ftime$DMA0CFGH$0$0                 time
           000000D5  Ftime$F0$0$0                       time
           000000D5  Fusb$DMA0CFGH$0$0                  usb
           000000D5  Fusb$F0$0$0                        usb
           000000D5  Fusb_cdc_acm$DMA0CFGH$0$0          usb_cdc_acm
           000000D5  Fusb_cdc_acm$F0$0$0                usb_cdc_acm
           000000D6  Fboard$AC$0$0                      board
           000000D6  Fboard$DMAARM$0$0                  board
           000000D6  Fdma$AC$0$0                        dma
           000000D6  Fdma$DMAARM$0$0                    dma
           000000D6  Fgreen_led$AC$0$0                  green_led
           000000D6  Fgreen_led$DMAARM$0$0              green_led
           000000D6  Fradio_mac$AC$0$0                  radio_mac
           000000D6  Fradio_mac$DMAARM$0$0              radio_mac
           000000D6  Fradio_queue$AC$0$0                radio_queue
           000000D6  Fradio_queue$DMAARM$0$0            radio_queue
           000000D6  Fradio_registers$AC$0$0            radio_registers
           000000D6  Fradio_registers$DMAARM$0$0        radio_registers
           000000D6  Fradio_send_test_with_usb_com$AC   radio_send_test_with_usb_com
           000000D6  Fradio_send_test_with_usb_com$DM   radio_send_test_with_usb_com
           000000D6  Frandom$AC$0$0                     random
ASxxxx Linker V02.00 + NoICE + sdld,  page 37.
Hexadecimal  [32-Bits]

Area                                    Addr        Size        Decimal Bytes (Attributes)
--------------------------------        ----        ----        ------- ----- ------------
.	.ABS.                             00000000    00000000 =           0. bytes (ABS,CON)

      Value  Global                              Global Defined In Module
      -----  --------------------------------   ------------------------
           000000D6  Frandom$DMAARM$0$0                 random
           000000D6  Frandom_from_sernum$AC$0$0         random_from_sernum
           000000D6  Frandom_from_sernum$DMAARM$0$0     random_from_sernum
           000000D6  Ftime$AC$0$0                       time
           000000D6  Ftime$DMAARM$0$0                   time
           000000D6  Fusb$AC$0$0                        usb
           000000D6  Fusb$DMAARM$0$0                    usb
           000000D6  Fusb_cdc_acm$AC$0$0                usb_cdc_acm
           000000D6  Fusb_cdc_acm$DMAARM$0$0            usb_cdc_acm
           000000D7  Fboard$CY$0$0                      board
           000000D7  Fboard$DMAREQ$0$0                  board
           000000D7  Fdma$CY$0$0                        dma
           000000D7  Fdma$DMAREQ$0$0                    dma
           000000D7  Fgreen_led$CY$0$0                  green_led
           000000D7  Fgreen_led$DMAREQ$0$0              green_led
           000000D7  Fradio_mac$CY$0$0                  radio_mac
           000000D7  Fradio_mac$DMAREQ$0$0              radio_mac
           000000D7  Fradio_queue$CY$0$0                radio_queue
           000000D7  Fradio_queue$DMAREQ$0$0            radio_queue
           000000D7  Fradio_registers$CY$0$0            radio_registers
           000000D7  Fradio_registers$DMAREQ$0$0        radio_registers
           000000D7  Fradio_send_test_with_usb_com$CY   radio_send_test_with_usb_com
           000000D7  Fradio_send_test_with_usb_com$DM   radio_send_test_with_usb_com
           000000D7  Frandom$CY$0$0                     random
           000000D7  Frandom$DMAREQ$0$0                 random
           000000D7  Frandom_from_sernum$CY$0$0         random_from_sernum
           000000D7  Frandom_from_sernum$DMAREQ$0$0     random_from_sernum
           000000D7  Ftime$CY$0$0                       time
           000000D7  Ftime$DMAREQ$0$0                   time
           000000D7  Fusb$CY$0$0                        usb
           000000D7  Fusb$DMAREQ$0$0                    usb
           000000D7  Fusb_cdc_acm$CY$0$0                usb_cdc_acm
           000000D7  Fusb_cdc_acm$DMAREQ$0$0            usb_cdc_acm
           000000D8  Fboard$T3OVFIF$0$0                 board
           000000D8  Fboard$TIMIF$0$0                   board
           000000D8  Fdma$T3OVFIF$0$0                   dma
           000000D8  Fdma$TIMIF$0$0                     dma
           000000D8  Fgreen_led$T3OVFIF$0$0             green_led
           000000D8  Fgreen_led$TIMIF$0$0               green_led
           000000D8  Fradio_mac$T3OVFIF$0$0             radio_mac
           000000D8  Fradio_mac$TIMIF$0$0               radio_mac
           000000D8  Fradio_queue$T3OVFIF$0$0           radio_queue
           000000D8  Fradio_queue$TIMIF$0$0             radio_queue
           000000D8  Fradio_registers$T3OVFIF$0$0       radio_registers
           000000D8  Fradio_registers$TIMIF$0$0         radio_registers
           000000D8  Fradio_send_test_with_usb_com$T3   radio_send_test_with_usb_com
           000000D8  Fradio_send_test_with_usb_com$TI   radio_send_test_with_usb_com
           000000D8  Frandom$T3OVFIF$0$0                random
           000000D8  Frandom$TIMIF$0$0                  random
           000000D8  Frandom_from_sernum$T3OVFIF$0$0    random_from_sernum
           000000D8  Frandom_from_sernum$TIMIF$0$0      random_from_sernum
ASxxxx Linker V02.00 + NoICE + sdld,  page 38.
Hexadecimal  [32-Bits]

Area                                    Addr        Size        Decimal Bytes (Attributes)
--------------------------------        ----        ----        ------- ----- ------------
.	.ABS.                             00000000    00000000 =           0. bytes (ABS,CON)

      Value  Global                              Global Defined In Module
      -----  --------------------------------   ------------------------
           000000D8  Ftime$T3OVFIF$0$0                  time
           000000D8  Ftime$TIMIF$0$0                    time
           000000D8  Fusb$T3OVFIF$0$0                   usb
           000000D8  Fusb$TIMIF$0$0                     usb
           000000D8  Fusb_cdc_acm$T3OVFIF$0$0           usb_cdc_acm
           000000D8  Fusb_cdc_acm$TIMIF$0$0             usb_cdc_acm
           000000D9  Fboard$RFD$0$0                     board
           000000D9  Fboard$T3CH0IF$0$0                 board
           000000D9  Fdma$RFD$0$0                       dma
           000000D9  Fdma$T3CH0IF$0$0                   dma
           000000D9  Fgreen_led$RFD$0$0                 green_led
           000000D9  Fgreen_led$T3CH0IF$0$0             green_led
           000000D9  Fradio_mac$RFD$0$0                 radio_mac
           000000D9  Fradio_mac$T3CH0IF$0$0             radio_mac
           000000D9  Fradio_queue$RFD$0$0               radio_queue
           000000D9  Fradio_queue$T3CH0IF$0$0           radio_queue
           000000D9  Fradio_registers$RFD$0$0           radio_registers
           000000D9  Fradio_registers$T3CH0IF$0$0       radio_registers
           000000D9  Fradio_send_test_with_usb_com$RF   radio_send_test_with_usb_com
           000000D9  Fradio_send_test_with_usb_com$T3   radio_send_test_with_usb_com
           000000D9  Frandom$RFD$0$0                    random
           000000D9  Frandom$T3CH0IF$0$0                random
           000000D9  Frandom_from_sernum$RFD$0$0        random_from_sernum
           000000D9  Frandom_from_sernum$T3CH0IF$0$0    random_from_sernum
           000000D9  Ftime$RFD$0$0                      time
           000000D9  Ftime$T3CH0IF$0$0                  time
           000000D9  Fusb$RFD$0$0                       usb
           000000D9  Fusb$T3CH0IF$0$0                   usb
           000000D9  Fusb_cdc_acm$RFD$0$0               usb_cdc_acm
           000000D9  Fusb_cdc_acm$T3CH0IF$0$0           usb_cdc_acm
           000000DA  Fboard$T1CC0L$0$0                  board
           000000DA  Fboard$T3CH1IF$0$0                 board
           000000DA  Fdma$T1CC0L$0$0                    dma
           000000DA  Fdma$T3CH1IF$0$0                   dma
           000000DA  Fgreen_led$T1CC0L$0$0              green_led
           000000DA  Fgreen_led$T3CH1IF$0$0             green_led
           000000DA  Fradio_mac$T1CC0L$0$0              radio_mac
           000000DA  Fradio_mac$T3CH1IF$0$0             radio_mac
           000000DA  Fradio_queue$T1CC0L$0$0            radio_queue
           000000DA  Fradio_queue$T3CH1IF$0$0           radio_queue
           000000DA  Fradio_registers$T1CC0L$0$0        radio_registers
           000000DA  Fradio_registers$T3CH1IF$0$0       radio_registers
           000000DA  Fradio_send_test_with_usb_com$T1   radio_send_test_with_usb_com
           000000DA  Fradio_send_test_with_usb_com$T3   radio_send_test_with_usb_com
           000000DA  Frandom$T1CC0L$0$0                 random
           000000DA  Frandom$T3CH1IF$0$0                random
           000000DA  Frandom_from_sernum$T1CC0L$0$0     random_from_sernum
           000000DA  Frandom_from_sernum$T3CH1IF$0$0    random_from_sernum
           000000DA  Ftime$T1CC0L$0$0                   time
           000000DA  Ftime$T3CH1IF$0$0                  time
           000000DA  Fusb$T1CC0L$0$0                    usb
ASxxxx Linker V02.00 + NoICE + sdld,  page 39.
Hexadecimal  [32-Bits]

Area                                    Addr        Size        Decimal Bytes (Attributes)
--------------------------------        ----        ----        ------- ----- ------------
.	.ABS.                             00000000    00000000 =           0. bytes (ABS,CON)

      Value  Global                              Global Defined In Module
      -----  --------------------------------   ------------------------
           000000DA  Fusb$T3CH1IF$0$0                   usb
           000000DA  Fusb_cdc_acm$T1CC0L$0$0            usb_cdc_acm
           000000DA  Fusb_cdc_acm$T3CH1IF$0$0           usb_cdc_acm
           000000DB  Fboard$T1CC0H$0$0                  board
           000000DB  Fboard$T4OVFIF$0$0                 board
           000000DB  Fdma$T1CC0H$0$0                    dma
           000000DB  Fdma$T4OVFIF$0$0                   dma
           000000DB  Fgreen_led$T1CC0H$0$0              green_led
           000000DB  Fgreen_led$T4OVFIF$0$0             green_led
           000000DB  Fradio_mac$T1CC0H$0$0              radio_mac
           000000DB  Fradio_mac$T4OVFIF$0$0             radio_mac
           000000DB  Fradio_queue$T1CC0H$0$0            radio_queue
           000000DB  Fradio_queue$T4OVFIF$0$0           radio_queue
           000000DB  Fradio_registers$T1CC0H$0$0        radio_registers
           000000DB  Fradio_registers$T4OVFIF$0$0       radio_registers
           000000DB  Fradio_send_test_with_usb_com$T1   radio_send_test_with_usb_com
           000000DB  Fradio_send_test_with_usb_com$T4   radio_send_test_with_usb_com
           000000DB  Frandom$T1CC0H$0$0                 random
           000000DB  Frandom$T4OVFIF$0$0                random
           000000DB  Frandom_from_sernum$T1CC0H$0$0     random_from_sernum
           000000DB  Frandom_from_sernum$T4OVFIF$0$0    random_from_sernum
           000000DB  Ftime$T1CC0H$0$0                   time
           000000DB  Ftime$T4OVFIF$0$0                  time
           000000DB  Fusb$T1CC0H$0$0                    usb
           000000DB  Fusb$T4OVFIF$0$0                   usb
           000000DB  Fusb_cdc_acm$T1CC0H$0$0            usb_cdc_acm
           000000DB  Fusb_cdc_acm$T4OVFIF$0$0           usb_cdc_acm
           000000DC  Fboard$T1CC1L$0$0                  board
           000000DC  Fboard$T4CH0IF$0$0                 board
           000000DC  Fdma$T1CC1L$0$0                    dma
           000000DC  Fdma$T4CH0IF$0$0                   dma
           000000DC  Fgreen_led$T1CC1L$0$0              green_led
           000000DC  Fgreen_led$T4CH0IF$0$0             green_led
           000000DC  Fradio_mac$T1CC1L$0$0              radio_mac
           000000DC  Fradio_mac$T4CH0IF$0$0             radio_mac
           000000DC  Fradio_queue$T1CC1L$0$0            radio_queue
           000000DC  Fradio_queue$T4CH0IF$0$0           radio_queue
           000000DC  Fradio_registers$T1CC1L$0$0        radio_registers
           000000DC  Fradio_registers$T4CH0IF$0$0       radio_registers
           000000DC  Fradio_send_test_with_usb_com$T1   radio_send_test_with_usb_com
           000000DC  Fradio_send_test_with_usb_com$T4   radio_send_test_with_usb_com
           000000DC  Frandom$T1CC1L$0$0                 random
           000000DC  Frandom$T4CH0IF$0$0                random
           000000DC  Frandom_from_sernum$T1CC1L$0$0     random_from_sernum
           000000DC  Frandom_from_sernum$T4CH0IF$0$0    random_from_sernum
           000000DC  Ftime$T1CC1L$0$0                   time
           000000DC  Ftime$T4CH0IF$0$0                  time
           000000DC  Fusb$T1CC1L$0$0                    usb
           000000DC  Fusb$T4CH0IF$0$0                   usb
           000000DC  Fusb_cdc_acm$T1CC1L$0$0            usb_cdc_acm
           000000DC  Fusb_cdc_acm$T4CH0IF$0$0           usb_cdc_acm
ASxxxx Linker V02.00 + NoICE + sdld,  page 40.
Hexadecimal  [32-Bits]

Area                                    Addr        Size        Decimal Bytes (Attributes)
--------------------------------        ----        ----        ------- ----- ------------
.	.ABS.                             00000000    00000000 =           0. bytes (ABS,CON)

      Value  Global                              Global Defined In Module
      -----  --------------------------------   ------------------------
           000000DD  Fboard$T1CC1H$0$0                  board
           000000DD  Fboard$T4CH1IF$0$0                 board
           000000DD  Fdma$T1CC1H$0$0                    dma
           000000DD  Fdma$T4CH1IF$0$0                   dma
           000000DD  Fgreen_led$T1CC1H$0$0              green_led
           000000DD  Fgreen_led$T4CH1IF$0$0             green_led
           000000DD  Fradio_mac$T1CC1H$0$0              radio_mac
           000000DD  Fradio_mac$T4CH1IF$0$0             radio_mac
           000000DD  Fradio_queue$T1CC1H$0$0            radio_queue
           000000DD  Fradio_queue$T4CH1IF$0$0           radio_queue
           000000DD  Fradio_registers$T1CC1H$0$0        radio_registers
           000000DD  Fradio_registers$T4CH1IF$0$0       radio_registers
           000000DD  Fradio_send_test_with_usb_com$T1   radio_send_test_with_usb_com
           000000DD  Fradio_send_test_with_usb_com$T4   radio_send_test_with_usb_com
           000000DD  Frandom$T1CC1H$0$0                 random
           000000DD  Frandom$T4CH1IF$0$0                random
           000000DD  Frandom_from_sernum$T1CC1H$0$0     random_from_sernum
           000000DD  Frandom_from_sernum$T4CH1IF$0$0    random_from_sernum
           000000DD  Ftime$T1CC1H$0$0                   time
           000000DD  Ftime$T4CH1IF$0$0                  time
           000000DD  Fusb$T1CC1H$0$0                    usb
           000000DD  Fusb$T4CH1IF$0$0                   usb
           000000DD  Fusb_cdc_acm$T1CC1H$0$0            usb_cdc_acm
           000000DD  Fusb_cdc_acm$T4CH1IF$0$0           usb_cdc_acm
           000000DE  Fboard$OVFIM$0$0                   board
           000000DE  Fboard$T1CC2L$0$0                  board
           000000DE  Fdma$OVFIM$0$0                     dma
           000000DE  Fdma$T1CC2L$0$0                    dma
           000000DE  Fgreen_led$OVFIM$0$0               green_led
           000000DE  Fgreen_led$T1CC2L$0$0              green_led
           000000DE  Fradio_mac$OVFIM$0$0               radio_mac
           000000DE  Fradio_mac$T1CC2L$0$0              radio_mac
           000000DE  Fradio_queue$OVFIM$0$0             radio_queue
           000000DE  Fradio_queue$T1CC2L$0$0            radio_queue
           000000DE  Fradio_registers$OVFIM$0$0         radio_registers
           000000DE  Fradio_registers$T1CC2L$0$0        radio_registers
           000000DE  Fradio_send_test_with_usb_com$OV   radio_send_test_with_usb_com
           000000DE  Fradio_send_test_with_usb_com$T1   radio_send_test_with_usb_com
           000000DE  Frandom$OVFIM$0$0                  random
           000000DE  Frandom$T1CC2L$0$0                 random
           000000DE  Frandom_from_sernum$OVFIM$0$0      random_from_sernum
           000000DE  Frandom_from_sernum$T1CC2L$0$0     random_from_sernum
           000000DE  Ftime$OVFIM$0$0                    time
           000000DE  Ftime$T1CC2L$0$0                   time
           000000DE  Fusb$OVFIM$0$0                     usb
           000000DE  Fusb$T1CC2L$0$0                    usb
           000000DE  Fusb_cdc_acm$OVFIM$0$0             usb_cdc_acm
           000000DE  Fusb_cdc_acm$T1CC2L$0$0            usb_cdc_acm
           000000DF  Fboard$T1CC2H$0$0                  board
           000000DF  Fboard$_TIMIF7$0$0                 board
           000000DF  Fdma$T1CC2H$0$0                    dma
ASxxxx Linker V02.00 + NoICE + sdld,  page 41.
Hexadecimal  [32-Bits]

Area                                    Addr        Size        Decimal Bytes (Attributes)
--------------------------------        ----        ----        ------- ----- ------------
.	.ABS.                             00000000    00000000 =           0. bytes (ABS,CON)

      Value  Global                              Global Defined In Module
      -----  --------------------------------   ------------------------
           000000DF  Fdma$_TIMIF7$0$0                   dma
           000000DF  Fgreen_led$T1CC2H$0$0              green_led
           000000DF  Fgreen_led$_TIMIF7$0$0             green_led
           000000DF  Fradio_mac$T1CC2H$0$0              radio_mac
           000000DF  Fradio_mac$_TIMIF7$0$0             radio_mac
           000000DF  Fradio_queue$T1CC2H$0$0            radio_queue
           000000DF  Fradio_queue$_TIMIF7$0$0           radio_queue
           000000DF  Fradio_registers$T1CC2H$0$0        radio_registers
           000000DF  Fradio_registers$_TIMIF7$0$0       radio_registers
           000000DF  Fradio_send_test_with_usb_com$T1   radio_send_test_with_usb_com
           000000DF  Fradio_send_test_with_usb_com$_T   radio_send_test_with_usb_com
           000000DF  Frandom$T1CC2H$0$0                 random
           000000DF  Frandom$_TIMIF7$0$0                random
           000000DF  Frandom_from_sernum$T1CC2H$0$0     random_from_sernum
           000000DF  Frandom_from_sernum$_TIMIF7$0$0    random_from_sernum
           000000DF  Ftime$T1CC2H$0$0                   time
           000000DF  Ftime$_TIMIF7$0$0                  time
           000000DF  Fusb$T1CC2H$0$0                    usb
           000000DF  Fusb$_TIMIF7$0$0                   usb
           000000DF  Fusb_cdc_acm$T1CC2H$0$0            usb_cdc_acm
           000000DF  Fusb_cdc_acm$_TIMIF7$0$0           usb_cdc_acm
           000000E0  Fboard$ACC$0$0                     board
           000000E0  Fboard$ACC_0$0$0                   board
           000000E0  Fdma$ACC$0$0                       dma
           000000E0  Fdma$ACC_0$0$0                     dma
           000000E0  Fgreen_led$ACC$0$0                 green_led
           000000E0  Fgreen_led$ACC_0$0$0               green_led
           000000E0  Fradio_mac$ACC$0$0                 radio_mac
           000000E0  Fradio_mac$ACC_0$0$0               radio_mac
           000000E0  Fradio_queue$ACC$0$0               radio_queue
           000000E0  Fradio_queue$ACC_0$0$0             radio_queue
           000000E0  Fradio_registers$ACC$0$0           radio_registers
           000000E0  Fradio_registers$ACC_0$0$0         radio_registers
           000000E0  Fradio_send_test_with_usb_com$AC   radio_send_test_with_usb_com
           000000E0  Fradio_send_test_with_usb_com$AC   radio_send_test_with_usb_com
           000000E0  Frandom$ACC$0$0                    random
           000000E0  Frandom$ACC_0$0$0                  random
           000000E0  Frandom_from_sernum$ACC$0$0        random_from_sernum
           000000E0  Frandom_from_sernum$ACC_0$0$0      random_from_sernum
           000000E0  Ftime$ACC$0$0                      time
           000000E0  Ftime$ACC_0$0$0                    time
           000000E0  Fusb$ACC$0$0                       usb
           000000E0  Fusb$ACC_0$0$0                     usb
           000000E0  Fusb_cdc_acm$ACC$0$0               usb_cdc_acm
           000000E0  Fusb_cdc_acm$ACC_0$0$0             usb_cdc_acm
           000000E1  Fboard$ACC_1$0$0                   board
           000000E1  Fboard$RFST$0$0                    board
           000000E1  Fdma$ACC_1$0$0                     dma
           000000E1  Fdma$RFST$0$0                      dma
           000000E1  Fgreen_led$ACC_1$0$0               green_led
           000000E1  Fgreen_led$RFST$0$0                green_led
ASxxxx Linker V02.00 + NoICE + sdld,  page 42.
Hexadecimal  [32-Bits]

Area                                    Addr        Size        Decimal Bytes (Attributes)
--------------------------------        ----        ----        ------- ----- ------------
.	.ABS.                             00000000    00000000 =           0. bytes (ABS,CON)

      Value  Global                              Global Defined In Module
      -----  --------------------------------   ------------------------
           000000E1  Fradio_mac$ACC_1$0$0               radio_mac
           000000E1  Fradio_mac$RFST$0$0                radio_mac
           000000E1  Fradio_queue$ACC_1$0$0             radio_queue
           000000E1  Fradio_queue$RFST$0$0              radio_queue
           000000E1  Fradio_registers$ACC_1$0$0         radio_registers
           000000E1  Fradio_registers$RFST$0$0          radio_registers
           000000E1  Fradio_send_test_with_usb_com$AC   radio_send_test_with_usb_com
           000000E1  Fradio_send_test_with_usb_com$RF   radio_send_test_with_usb_com
           000000E1  Frandom$ACC_1$0$0                  random
           000000E1  Frandom$RFST$0$0                   random
           000000E1  Frandom_from_sernum$ACC_1$0$0      random_from_sernum
           000000E1  Frandom_from_sernum$RFST$0$0       random_from_sernum
           000000E1  Ftime$ACC_1$0$0                    time
           000000E1  Ftime$RFST$0$0                     time
           000000E1  Fusb$ACC_1$0$0                     usb
           000000E1  Fusb$RFST$0$0                      usb
           000000E1  Fusb_cdc_acm$ACC_1$0$0             usb_cdc_acm
           000000E1  Fusb_cdc_acm$RFST$0$0              usb_cdc_acm
           000000E2  Fboard$ACC_2$0$0                   board
           000000E2  Fboard$T1CNTL$0$0                  board
           000000E2  Fdma$ACC_2$0$0                     dma
           000000E2  Fdma$T1CNTL$0$0                    dma
           000000E2  Fgreen_led$ACC_2$0$0               green_led
           000000E2  Fgreen_led$T1CNTL$0$0              green_led
           000000E2  Fradio_mac$ACC_2$0$0               radio_mac
           000000E2  Fradio_mac$T1CNTL$0$0              radio_mac
           000000E2  Fradio_queue$ACC_2$0$0             radio_queue
           000000E2  Fradio_queue$T1CNTL$0$0            radio_queue
           000000E2  Fradio_registers$ACC_2$0$0         radio_registers
           000000E2  Fradio_registers$T1CNTL$0$0        radio_registers
           000000E2  Fradio_send_test_with_usb_com$AC   radio_send_test_with_usb_com
           000000E2  Fradio_send_test_with_usb_com$T1   radio_send_test_with_usb_com
           000000E2  Frandom$ACC_2$0$0                  random
           000000E2  Frandom$T1CNTL$0$0                 random
           000000E2  Frandom_from_sernum$ACC_2$0$0      random_from_sernum
           000000E2  Frandom_from_sernum$T1CNTL$0$0     random_from_sernum
           000000E2  Ftime$ACC_2$0$0                    time
           000000E2  Ftime$T1CNTL$0$0                   time
           000000E2  Fusb$ACC_2$0$0                     usb
           000000E2  Fusb$T1CNTL$0$0                    usb
           000000E2  Fusb_cdc_acm$ACC_2$0$0             usb_cdc_acm
           000000E2  Fusb_cdc_acm$T1CNTL$0$0            usb_cdc_acm
           000000E3  Fboard$ACC_3$0$0                   board
           000000E3  Fboard$T1CNTH$0$0                  board
           000000E3  Fdma$ACC_3$0$0                     dma
           000000E3  Fdma$T1CNTH$0$0                    dma
           000000E3  Fgreen_led$ACC_3$0$0               green_led
           000000E3  Fgreen_led$T1CNTH$0$0              green_led
           000000E3  Fradio_mac$ACC_3$0$0               radio_mac
           000000E3  Fradio_mac$T1CNTH$0$0              radio_mac
           000000E3  Fradio_queue$ACC_3$0$0             radio_queue
ASxxxx Linker V02.00 + NoICE + sdld,  page 43.
Hexadecimal  [32-Bits]

Area                                    Addr        Size        Decimal Bytes (Attributes)
--------------------------------        ----        ----        ------- ----- ------------
.	.ABS.                             00000000    00000000 =           0. bytes (ABS,CON)

      Value  Global                              Global Defined In Module
      -----  --------------------------------   ------------------------
           000000E3  Fradio_queue$T1CNTH$0$0            radio_queue
           000000E3  Fradio_registers$ACC_3$0$0         radio_registers
           000000E3  Fradio_registers$T1CNTH$0$0        radio_registers
           000000E3  Fradio_send_test_with_usb_com$AC   radio_send_test_with_usb_com
           000000E3  Fradio_send_test_with_usb_com$T1   radio_send_test_with_usb_com
           000000E3  Frandom$ACC_3$0$0                  random
           000000E3  Frandom$T1CNTH$0$0                 random
           000000E3  Frandom_from_sernum$ACC_3$0$0      random_from_sernum
           000000E3  Frandom_from_sernum$T1CNTH$0$0     random_from_sernum
           000000E3  Ftime$ACC_3$0$0                    time
           000000E3  Ftime$T1CNTH$0$0                   time
           000000E3  Fusb$ACC_3$0$0                     usb
           000000E3  Fusb$T1CNTH$0$0                    usb
           000000E3  Fusb_cdc_acm$ACC_3$0$0             usb_cdc_acm
           000000E3  Fusb_cdc_acm$T1CNTH$0$0            usb_cdc_acm
           000000E4  Fboard$ACC_4$0$0                   board
           000000E4  Fboard$T1CTL$0$0                   board
           000000E4  Fdma$ACC_4$0$0                     dma
           000000E4  Fdma$T1CTL$0$0                     dma
           000000E4  Fgreen_led$ACC_4$0$0               green_led
           000000E4  Fgreen_led$T1CTL$0$0               green_led
           000000E4  Fradio_mac$ACC_4$0$0               radio_mac
           000000E4  Fradio_mac$T1CTL$0$0               radio_mac
           000000E4  Fradio_queue$ACC_4$0$0             radio_queue
           000000E4  Fradio_queue$T1CTL$0$0             radio_queue
           000000E4  Fradio_registers$ACC_4$0$0         radio_registers
           000000E4  Fradio_registers$T1CTL$0$0         radio_registers
           000000E4  Fradio_send_test_with_usb_com$AC   radio_send_test_with_usb_com
           000000E4  Fradio_send_test_with_usb_com$T1   radio_send_test_with_usb_com
           000000E4  Frandom$ACC_4$0$0                  random
           000000E4  Frandom$T1CTL$0$0                  random
           000000E4  Frandom_from_sernum$ACC_4$0$0      random_from_sernum
           000000E4  Frandom_from_sernum$T1CTL$0$0      random_from_sernum
           000000E4  Ftime$ACC_4$0$0                    time
           000000E4  Ftime$T1CTL$0$0                    time
           000000E4  Fusb$ACC_4$0$0                     usb
           000000E4  Fusb$T1CTL$0$0                     usb
           000000E4  Fusb_cdc_acm$ACC_4$0$0             usb_cdc_acm
           000000E4  Fusb_cdc_acm$T1CTL$0$0             usb_cdc_acm
           000000E5  Fboard$ACC_5$0$0                   board
           000000E5  Fboard$T1CCTL0$0$0                 board
           000000E5  Fdma$ACC_5$0$0                     dma
           000000E5  Fdma$T1CCTL0$0$0                   dma
           000000E5  Fgreen_led$ACC_5$0$0               green_led
           000000E5  Fgreen_led$T1CCTL0$0$0             green_led
           000000E5  Fradio_mac$ACC_5$0$0               radio_mac
           000000E5  Fradio_mac$T1CCTL0$0$0             radio_mac
           000000E5  Fradio_queue$ACC_5$0$0             radio_queue
           000000E5  Fradio_queue$T1CCTL0$0$0           radio_queue
           000000E5  Fradio_registers$ACC_5$0$0         radio_registers
           000000E5  Fradio_registers$T1CCTL0$0$0       radio_registers
ASxxxx Linker V02.00 + NoICE + sdld,  page 44.
Hexadecimal  [32-Bits]

Area                                    Addr        Size        Decimal Bytes (Attributes)
--------------------------------        ----        ----        ------- ----- ------------
.	.ABS.                             00000000    00000000 =           0. bytes (ABS,CON)

      Value  Global                              Global Defined In Module
      -----  --------------------------------   ------------------------
           000000E5  Fradio_send_test_with_usb_com$AC   radio_send_test_with_usb_com
           000000E5  Fradio_send_test_with_usb_com$T1   radio_send_test_with_usb_com
           000000E5  Frandom$ACC_5$0$0                  random
           000000E5  Frandom$T1CCTL0$0$0                random
           000000E5  Frandom_from_sernum$ACC_5$0$0      random_from_sernum
           000000E5  Frandom_from_sernum$T1CCTL0$0$0    random_from_sernum
           000000E5  Ftime$ACC_5$0$0                    time
           000000E5  Ftime$T1CCTL0$0$0                  time
           000000E5  Fusb$ACC_5$0$0                     usb
           000000E5  Fusb$T1CCTL0$0$0                   usb
           000000E5  Fusb_cdc_acm$ACC_5$0$0             usb_cdc_acm
           000000E5  Fusb_cdc_acm$T1CCTL0$0$0           usb_cdc_acm
           000000E6  Fboard$ACC_6$0$0                   board
           000000E6  Fboard$T1CCTL1$0$0                 board
           000000E6  Fdma$ACC_6$0$0                     dma
           000000E6  Fdma$T1CCTL1$0$0                   dma
           000000E6  Fgreen_led$ACC_6$0$0               green_led
           000000E6  Fgreen_led$T1CCTL1$0$0             green_led
           000000E6  Fradio_mac$ACC_6$0$0               radio_mac
           000000E6  Fradio_mac$T1CCTL1$0$0             radio_mac
           000000E6  Fradio_queue$ACC_6$0$0             radio_queue
           000000E6  Fradio_queue$T1CCTL1$0$0           radio_queue
           000000E6  Fradio_registers$ACC_6$0$0         radio_registers
           000000E6  Fradio_registers$T1CCTL1$0$0       radio_registers
           000000E6  Fradio_send_test_with_usb_com$AC   radio_send_test_with_usb_com
           000000E6  Fradio_send_test_with_usb_com$T1   radio_send_test_with_usb_com
           000000E6  Frandom$ACC_6$0$0                  random
           000000E6  Frandom$T1CCTL1$0$0                random
           000000E6  Frandom_from_sernum$ACC_6$0$0      random_from_sernum
           000000E6  Frandom_from_sernum$T1CCTL1$0$0    random_from_sernum
           000000E6  Ftime$ACC_6$0$0                    time
           000000E6  Ftime$T1CCTL1$0$0                  time
           000000E6  Fusb$ACC_6$0$0                     usb
           000000E6  Fusb$T1CCTL1$0$0                   usb
           000000E6  Fusb_cdc_acm$ACC_6$0$0             usb_cdc_acm
           000000E6  Fusb_cdc_acm$T1CCTL1$0$0           usb_cdc_acm
           000000E7  Fboard$ACC_7$0$0                   board
           000000E7  Fboard$T1CCTL2$0$0                 board
           000000E7  Fdma$ACC_7$0$0                     dma
           000000E7  Fdma$T1CCTL2$0$0                   dma
           000000E7  Fgreen_led$ACC_7$0$0               green_led
           000000E7  Fgreen_led$T1CCTL2$0$0             green_led
           000000E7  Fradio_mac$ACC_7$0$0               radio_mac
           000000E7  Fradio_mac$T1CCTL2$0$0             radio_mac
           000000E7  Fradio_queue$ACC_7$0$0             radio_queue
           000000E7  Fradio_queue$T1CCTL2$0$0           radio_queue
           000000E7  Fradio_registers$ACC_7$0$0         radio_registers
           000000E7  Fradio_registers$T1CCTL2$0$0       radio_registers
           000000E7  Fradio_send_test_with_usb_com$AC   radio_send_test_with_usb_com
           000000E7  Fradio_send_test_with_usb_com$T1   radio_send_test_with_usb_com
           000000E7  Frandom$ACC_7$0$0                  random
ASxxxx Linker V02.00 + NoICE + sdld,  page 45.
Hexadecimal  [32-Bits]

Area                                    Addr        Size        Decimal Bytes (Attributes)
--------------------------------        ----        ----        ------- ----- ------------
.	.ABS.                             00000000    00000000 =           0. bytes (ABS,CON)

      Value  Global                              Global Defined In Module
      -----  --------------------------------   ------------------------
           000000E7  Frandom$T1CCTL2$0$0                random
           000000E7  Frandom_from_sernum$ACC_7$0$0      random_from_sernum
           000000E7  Frandom_from_sernum$T1CCTL2$0$0    random_from_sernum
           000000E7  Ftime$ACC_7$0$0                    time
           000000E7  Ftime$T1CCTL2$0$0                  time
           000000E7  Fusb$ACC_7$0$0                     usb
           000000E7  Fusb$T1CCTL2$0$0                   usb
           000000E7  Fusb_cdc_acm$ACC_7$0$0             usb_cdc_acm
           000000E7  Fusb_cdc_acm$T1CCTL2$0$0           usb_cdc_acm
           000000E8  Fboard$IRCON2$0$0                  board
           000000E8  Fboard$P2IF$0$0                    board
           000000E8  Fdma$IRCON2$0$0                    dma
           000000E8  Fdma$P2IF$0$0                      dma
           000000E8  Fgreen_led$IRCON2$0$0              green_led
           000000E8  Fgreen_led$P2IF$0$0                green_led
           000000E8  Fradio_mac$IRCON2$0$0              radio_mac
           000000E8  Fradio_mac$P2IF$0$0                radio_mac
           000000E8  Fradio_queue$IRCON2$0$0            radio_queue
           000000E8  Fradio_queue$P2IF$0$0              radio_queue
           000000E8  Fradio_registers$IRCON2$0$0        radio_registers
           000000E8  Fradio_registers$P2IF$0$0          radio_registers
           000000E8  Fradio_send_test_with_usb_com$IR   radio_send_test_with_usb_com
           000000E8  Fradio_send_test_with_usb_com$P2   radio_send_test_with_usb_com
           000000E8  Frandom$IRCON2$0$0                 random
           000000E8  Frandom$P2IF$0$0                   random
           000000E8  Frandom_from_sernum$IRCON2$0$0     random_from_sernum
           000000E8  Frandom_from_sernum$P2IF$0$0       random_from_sernum
           000000E8  Ftime$IRCON2$0$0                   time
           000000E8  Ftime$P2IF$0$0                     time
           000000E8  Fusb$IRCON2$0$0                    usb
           000000E8  Fusb$P2IF$0$0                      usb
           000000E8  Fusb_cdc_acm$IRCON2$0$0            usb_cdc_acm
           000000E8  Fusb_cdc_acm$P2IF$0$0              usb_cdc_acm
           000000E9  Fboard$RFIF$0$0                    board
           000000E9  Fboard$UTX0IF$0$0                  board
           000000E9  Fdma$RFIF$0$0                      dma
           000000E9  Fdma$UTX0IF$0$0                    dma
           000000E9  Fgreen_led$RFIF$0$0                green_led
           000000E9  Fgreen_led$UTX0IF$0$0              green_led
           000000E9  Fradio_mac$RFIF$0$0                radio_mac
           000000E9  Fradio_mac$UTX0IF$0$0              radio_mac
           000000E9  Fradio_queue$RFIF$0$0              radio_queue
           000000E9  Fradio_queue$UTX0IF$0$0            radio_queue
           000000E9  Fradio_registers$RFIF$0$0          radio_registers
           000000E9  Fradio_registers$UTX0IF$0$0        radio_registers
           000000E9  Fradio_send_test_with_usb_com$RF   radio_send_test_with_usb_com
           000000E9  Fradio_send_test_with_usb_com$UT   radio_send_test_with_usb_com
           000000E9  Frandom$RFIF$0$0                   random
           000000E9  Frandom$UTX0IF$0$0                 random
           000000E9  Frandom_from_sernum$RFIF$0$0       random_from_sernum
           000000E9  Frandom_from_sernum$UTX0IF$0$0     random_from_sernum
ASxxxx Linker V02.00 + NoICE + sdld,  page 46.
Hexadecimal  [32-Bits]

Area                                    Addr        Size        Decimal Bytes (Attributes)
--------------------------------        ----        ----        ------- ----- ------------
.	.ABS.                             00000000    00000000 =           0. bytes (ABS,CON)

      Value  Global                              Global Defined In Module
      -----  --------------------------------   ------------------------
           000000E9  Ftime$RFIF$0$0                     time
           000000E9  Ftime$UTX0IF$0$0                   time
           000000E9  Fusb$RFIF$0$0                      usb
           000000E9  Fusb$UTX0IF$0$0                    usb
           000000E9  Fusb_cdc_acm$RFIF$0$0              usb_cdc_acm
           000000E9  Fusb_cdc_acm$UTX0IF$0$0            usb_cdc_acm
           000000EA  Fboard$T4CNT$0$0                   board
           000000EA  Fboard$UTX1IF$0$0                  board
           000000EA  Fdma$T4CNT$0$0                     dma
           000000EA  Fdma$UTX1IF$0$0                    dma
           000000EA  Fgreen_led$T4CNT$0$0               green_led
           000000EA  Fgreen_led$UTX1IF$0$0              green_led
           000000EA  Fradio_mac$T4CNT$0$0               radio_mac
           000000EA  Fradio_mac$UTX1IF$0$0              radio_mac
           000000EA  Fradio_queue$T4CNT$0$0             radio_queue
           000000EA  Fradio_queue$UTX1IF$0$0            radio_queue
           000000EA  Fradio_registers$T4CNT$0$0         radio_registers
           000000EA  Fradio_registers$UTX1IF$0$0        radio_registers
           000000EA  Fradio_send_test_with_usb_com$T4   radio_send_test_with_usb_com
           000000EA  Fradio_send_test_with_usb_com$UT   radio_send_test_with_usb_com
           000000EA  Frandom$T4CNT$0$0                  random
           000000EA  Frandom$UTX1IF$0$0                 random
           000000EA  Frandom_from_sernum$T4CNT$0$0      random_from_sernum
           000000EA  Frandom_from_sernum$UTX1IF$0$0     random_from_sernum
           000000EA  Ftime$T4CNT$0$0                    time
           000000EA  Ftime$UTX1IF$0$0                   time
           000000EA  Fusb$T4CNT$0$0                     usb
           000000EA  Fusb$UTX1IF$0$0                    usb
           000000EA  Fusb_cdc_acm$T4CNT$0$0             usb_cdc_acm
           000000EA  Fusb_cdc_acm$UTX1IF$0$0            usb_cdc_acm
           000000EB  Fboard$P1IF$0$0                    board
           000000EB  Fboard$T4CTL$0$0                   board
           000000EB  Fdma$P1IF$0$0                      dma
           000000EB  Fdma$T4CTL$0$0                     dma
           000000EB  Fgreen_led$P1IF$0$0                green_led
           000000EB  Fgreen_led$T4CTL$0$0               green_led
           000000EB  Fradio_mac$P1IF$0$0                radio_mac
           000000EB  Fradio_mac$T4CTL$0$0               radio_mac
           000000EB  Fradio_queue$P1IF$0$0              radio_queue
           000000EB  Fradio_queue$T4CTL$0$0             radio_queue
           000000EB  Fradio_registers$P1IF$0$0          radio_registers
           000000EB  Fradio_registers$T4CTL$0$0         radio_registers
           000000EB  Fradio_send_test_with_usb_com$P1   radio_send_test_with_usb_com
           000000EB  Fradio_send_test_with_usb_com$T4   radio_send_test_with_usb_com
           000000EB  Frandom$P1IF$0$0                   random
           000000EB  Frandom$T4CTL$0$0                  random
           000000EB  Frandom_from_sernum$P1IF$0$0       random_from_sernum
           000000EB  Frandom_from_sernum$T4CTL$0$0      random_from_sernum
           000000EB  Ftime$P1IF$0$0                     time
           000000EB  Ftime$T4CTL$0$0                    time
           000000EB  Fusb$P1IF$0$0                      usb
ASxxxx Linker V02.00 + NoICE + sdld,  page 47.
Hexadecimal  [32-Bits]

Area                                    Addr        Size        Decimal Bytes (Attributes)
--------------------------------        ----        ----        ------- ----- ------------
.	.ABS.                             00000000    00000000 =           0. bytes (ABS,CON)

      Value  Global                              Global Defined In Module
      -----  --------------------------------   ------------------------
           000000EB  Fusb$T4CTL$0$0                     usb
           000000EB  Fusb_cdc_acm$P1IF$0$0              usb_cdc_acm
           000000EB  Fusb_cdc_acm$T4CTL$0$0             usb_cdc_acm
           000000EC  Fboard$T4CCTL0$0$0                 board
           000000EC  Fboard$WDTIF$0$0                   board
           000000EC  Fdma$T4CCTL0$0$0                   dma
           000000EC  Fdma$WDTIF$0$0                     dma
           000000EC  Fgreen_led$T4CCTL0$0$0             green_led
           000000EC  Fgreen_led$WDTIF$0$0               green_led
           000000EC  Fradio_mac$T4CCTL0$0$0             radio_mac
           000000EC  Fradio_mac$WDTIF$0$0               radio_mac
           000000EC  Fradio_queue$T4CCTL0$0$0           radio_queue
           000000EC  Fradio_queue$WDTIF$0$0             radio_queue
           000000EC  Fradio_registers$T4CCTL0$0$0       radio_registers
           000000EC  Fradio_registers$WDTIF$0$0         radio_registers
           000000EC  Fradio_send_test_with_usb_com$T4   radio_send_test_with_usb_com
           000000EC  Fradio_send_test_with_usb_com$WD   radio_send_test_with_usb_com
           000000EC  Frandom$T4CCTL0$0$0                random
           000000EC  Frandom$WDTIF$0$0                  random
           000000EC  Frandom_from_sernum$T4CCTL0$0$0    random_from_sernum
           000000EC  Frandom_from_sernum$WDTIF$0$0      random_from_sernum
           000000EC  Ftime$T4CCTL0$0$0                  time
           000000EC  Ftime$WDTIF$0$0                    time
           000000EC  Fusb$T4CCTL0$0$0                   usb
           000000EC  Fusb$WDTIF$0$0                     usb
           000000EC  Fusb_cdc_acm$T4CCTL0$0$0           usb_cdc_acm
           000000EC  Fusb_cdc_acm$WDTIF$0$0             usb_cdc_acm
           000000ED  Fboard$T4CC0$0$0                   board
           000000ED  Fboard$_IRCON25$0$0                board
           000000ED  Fdma$T4CC0$0$0                     dma
           000000ED  Fdma$_IRCON25$0$0                  dma
           000000ED  Fgreen_led$T4CC0$0$0               green_led
           000000ED  Fgreen_led$_IRCON25$0$0            green_led
           000000ED  Fradio_mac$T4CC0$0$0               radio_mac
           000000ED  Fradio_mac$_IRCON25$0$0            radio_mac
           000000ED  Fradio_queue$T4CC0$0$0             radio_queue
           000000ED  Fradio_queue$_IRCON25$0$0          radio_queue
           000000ED  Fradio_registers$T4CC0$0$0         radio_registers
           000000ED  Fradio_registers$_IRCON25$0$0      radio_registers
           000000ED  Fradio_send_test_with_usb_com$T4   radio_send_test_with_usb_com
           000000ED  Fradio_send_test_with_usb_com$_I   radio_send_test_with_usb_com
           000000ED  Frandom$T4CC0$0$0                  random
           000000ED  Frandom$_IRCON25$0$0               random
           000000ED  Frandom_from_sernum$T4CC0$0$0      random_from_sernum
           000000ED  Frandom_from_sernum$_IRCON25$0$0   random_from_sernum
           000000ED  Ftime$T4CC0$0$0                    time
           000000ED  Ftime$_IRCON25$0$0                 time
           000000ED  Fusb$T4CC0$0$0                     usb
           000000ED  Fusb$_IRCON25$0$0                  usb
           000000ED  Fusb_cdc_acm$T4CC0$0$0             usb_cdc_acm
           000000ED  Fusb_cdc_acm$_IRCON25$0$0          usb_cdc_acm
ASxxxx Linker V02.00 + NoICE + sdld,  page 48.
Hexadecimal  [32-Bits]

Area                                    Addr        Size        Decimal Bytes (Attributes)
--------------------------------        ----        ----        ------- ----- ------------
.	.ABS.                             00000000    00000000 =           0. bytes (ABS,CON)

      Value  Global                              Global Defined In Module
      -----  --------------------------------   ------------------------
           000000EE  Fboard$T4CCTL1$0$0                 board
           000000EE  Fboard$_IRCON26$0$0                board
           000000EE  Fdma$T4CCTL1$0$0                   dma
           000000EE  Fdma$_IRCON26$0$0                  dma
           000000EE  Fgreen_led$T4CCTL1$0$0             green_led
           000000EE  Fgreen_led$_IRCON26$0$0            green_led
           000000EE  Fradio_mac$T4CCTL1$0$0             radio_mac
           000000EE  Fradio_mac$_IRCON26$0$0            radio_mac
           000000EE  Fradio_queue$T4CCTL1$0$0           radio_queue
           000000EE  Fradio_queue$_IRCON26$0$0          radio_queue
           000000EE  Fradio_registers$T4CCTL1$0$0       radio_registers
           000000EE  Fradio_registers$_IRCON26$0$0      radio_registers
           000000EE  Fradio_send_test_with_usb_com$T4   radio_send_test_with_usb_com
           000000EE  Fradio_send_test_with_usb_com$_I   radio_send_test_with_usb_com
           000000EE  Frandom$T4CCTL1$0$0                random
           000000EE  Frandom$_IRCON26$0$0               random
           000000EE  Frandom_from_sernum$T4CCTL1$0$0    random_from_sernum
           000000EE  Frandom_from_sernum$_IRCON26$0$0   random_from_sernum
           000000EE  Ftime$T4CCTL1$0$0                  time
           000000EE  Ftime$_IRCON26$0$0                 time
           000000EE  Fusb$T4CCTL1$0$0                   usb
           000000EE  Fusb$_IRCON26$0$0                  usb
           000000EE  Fusb_cdc_acm$T4CCTL1$0$0           usb_cdc_acm
           000000EE  Fusb_cdc_acm$_IRCON26$0$0          usb_cdc_acm
           000000EF  Fboard$T4CC1$0$0                   board
           000000EF  Fboard$_IRCON27$0$0                board
           000000EF  Fdma$T4CC1$0$0                     dma
           000000EF  Fdma$_IRCON27$0$0                  dma
           000000EF  Fgreen_led$T4CC1$0$0               green_led
           000000EF  Fgreen_led$_IRCON27$0$0            green_led
           000000EF  Fradio_mac$T4CC1$0$0               radio_mac
           000000EF  Fradio_mac$_IRCON27$0$0            radio_mac
           000000EF  Fradio_queue$T4CC1$0$0             radio_queue
           000000EF  Fradio_queue$_IRCON27$0$0          radio_queue
           000000EF  Fradio_registers$T4CC1$0$0         radio_registers
           000000EF  Fradio_registers$_IRCON27$0$0      radio_registers
           000000EF  Fradio_send_test_with_usb_com$T4   radio_send_test_with_usb_com
           000000EF  Fradio_send_test_with_usb_com$_I   radio_send_test_with_usb_com
           000000EF  Frandom$T4CC1$0$0                  random
           000000EF  Frandom$_IRCON27$0$0               random
           000000EF  Frandom_from_sernum$T4CC1$0$0      random_from_sernum
           000000EF  Frandom_from_sernum$_IRCON27$0$0   random_from_sernum
           000000EF  Ftime$T4CC1$0$0                    time
           000000EF  Ftime$_IRCON27$0$0                 time
           000000EF  Fusb$T4CC1$0$0                     usb
           000000EF  Fusb$_IRCON27$0$0                  usb
           000000EF  Fusb_cdc_acm$T4CC1$0$0             usb_cdc_acm
           000000EF  Fusb_cdc_acm$_IRCON27$0$0          usb_cdc_acm
           000000F0  Fboard$B$0$0                       board
           000000F0  Fboard$B_0$0$0                     board
           000000F0  Fdma$B$0$0                         dma
ASxxxx Linker V02.00 + NoICE + sdld,  page 49.
Hexadecimal  [32-Bits]

Area                                    Addr        Size        Decimal Bytes (Attributes)
--------------------------------        ----        ----        ------- ----- ------------
.	.ABS.                             00000000    00000000 =           0. bytes (ABS,CON)

      Value  Global                              Global Defined In Module
      -----  --------------------------------   ------------------------
           000000F0  Fdma$B_0$0$0                       dma
           000000F0  Fgreen_led$B$0$0                   green_led
           000000F0  Fgreen_led$B_0$0$0                 green_led
           000000F0  Fradio_mac$B$0$0                   radio_mac
           000000F0  Fradio_mac$B_0$0$0                 radio_mac
           000000F0  Fradio_queue$B$0$0                 radio_queue
           000000F0  Fradio_queue$B_0$0$0               radio_queue
           000000F0  Fradio_registers$B$0$0             radio_registers
           000000F0  Fradio_registers$B_0$0$0           radio_registers
           000000F0  Fradio_send_test_with_usb_com$B$   radio_send_test_with_usb_com
           000000F0  Fradio_send_test_with_usb_com$B_   radio_send_test_with_usb_com
           000000F0  Frandom$B$0$0                      random
           000000F0  Frandom$B_0$0$0                    random
           000000F0  Frandom_from_sernum$B$0$0          random_from_sernum
           000000F0  Frandom_from_sernum$B_0$0$0        random_from_sernum
           000000F0  Ftime$B$0$0                        time
           000000F0  Ftime$B_0$0$0                      time
           000000F0  Fusb$B$0$0                         usb
           000000F0  Fusb$B_0$0$0                       usb
           000000F0  Fusb_cdc_acm$B$0$0                 usb_cdc_acm
           000000F0  Fusb_cdc_acm$B_0$0$0               usb_cdc_acm
           000000F1  Fboard$B_1$0$0                     board
           000000F1  Fboard$PERCFG$0$0                  board
           000000F1  Fdma$B_1$0$0                       dma
           000000F1  Fdma$PERCFG$0$0                    dma
           000000F1  Fgreen_led$B_1$0$0                 green_led
           000000F1  Fgreen_led$PERCFG$0$0              green_led
           000000F1  Fradio_mac$B_1$0$0                 radio_mac
           000000F1  Fradio_mac$PERCFG$0$0              radio_mac
           000000F1  Fradio_queue$B_1$0$0               radio_queue
           000000F1  Fradio_queue$PERCFG$0$0            radio_queue
           000000F1  Fradio_registers$B_1$0$0           radio_registers
           000000F1  Fradio_registers$PERCFG$0$0        radio_registers
           000000F1  Fradio_send_test_with_usb_com$B_   radio_send_test_with_usb_com
           000000F1  Fradio_send_test_with_usb_com$PE   radio_send_test_with_usb_com
           000000F1  Frandom$B_1$0$0                    random
           000000F1  Frandom$PERCFG$0$0                 random
           000000F1  Frandom_from_sernum$B_1$0$0        random_from_sernum
           000000F1  Frandom_from_sernum$PERCFG$0$0     random_from_sernum
           000000F1  Ftime$B_1$0$0                      time
           000000F1  Ftime$PERCFG$0$0                   time
           000000F1  Fusb$B_1$0$0                       usb
           000000F1  Fusb$PERCFG$0$0                    usb
           000000F1  Fusb_cdc_acm$B_1$0$0               usb_cdc_acm
           000000F1  Fusb_cdc_acm$PERCFG$0$0            usb_cdc_acm
           000000F2  Fboard$ADCCFG$0$0                  board
           000000F2  Fboard$B_2$0$0                     board
           000000F2  Fdma$ADCCFG$0$0                    dma
           000000F2  Fdma$B_2$0$0                       dma
           000000F2  Fgreen_led$ADCCFG$0$0              green_led
           000000F2  Fgreen_led$B_2$0$0                 green_led
ASxxxx Linker V02.00 + NoICE + sdld,  page 50.
Hexadecimal  [32-Bits]

Area                                    Addr        Size        Decimal Bytes (Attributes)
--------------------------------        ----        ----        ------- ----- ------------
.	.ABS.                             00000000    00000000 =           0. bytes (ABS,CON)

      Value  Global                              Global Defined In Module
      -----  --------------------------------   ------------------------
           000000F2  Fradio_mac$ADCCFG$0$0              radio_mac
           000000F2  Fradio_mac$B_2$0$0                 radio_mac
           000000F2  Fradio_queue$ADCCFG$0$0            radio_queue
           000000F2  Fradio_queue$B_2$0$0               radio_queue
           000000F2  Fradio_registers$ADCCFG$0$0        radio_registers
           000000F2  Fradio_registers$B_2$0$0           radio_registers
           000000F2  Fradio_send_test_with_usb_com$AD   radio_send_test_with_usb_com
           000000F2  Fradio_send_test_with_usb_com$B_   radio_send_test_with_usb_com
           000000F2  Frandom$ADCCFG$0$0                 random
           000000F2  Frandom$B_2$0$0                    random
           000000F2  Frandom_from_sernum$ADCCFG$0$0     random_from_sernum
           000000F2  Frandom_from_sernum$B_2$0$0        random_from_sernum
           000000F2  Ftime$ADCCFG$0$0                   time
           000000F2  Ftime$B_2$0$0                      time
           000000F2  Fusb$ADCCFG$0$0                    usb
           000000F2  Fusb$B_2$0$0                       usb
           000000F2  Fusb_cdc_acm$ADCCFG$0$0            usb_cdc_acm
           000000F2  Fusb_cdc_acm$B_2$0$0               usb_cdc_acm
           000000F3  Fboard$B_3$0$0                     board
           000000F3  Fboard$P0SEL$0$0                   board
           000000F3  Fdma$B_3$0$0                       dma
           000000F3  Fdma$P0SEL$0$0                     dma
           000000F3  Fgreen_led$B_3$0$0                 green_led
           000000F3  Fgreen_led$P0SEL$0$0               green_led
           000000F3  Fradio_mac$B_3$0$0                 radio_mac
           000000F3  Fradio_mac$P0SEL$0$0               radio_mac
           000000F3  Fradio_queue$B_3$0$0               radio_queue
           000000F3  Fradio_queue$P0SEL$0$0             radio_queue
           000000F3  Fradio_registers$B_3$0$0           radio_registers
           000000F3  Fradio_registers$P0SEL$0$0         radio_registers
           000000F3  Fradio_send_test_with_usb_com$B_   radio_send_test_with_usb_com
           000000F3  Fradio_send_test_with_usb_com$P0   radio_send_test_with_usb_com
           000000F3  Frandom$B_3$0$0                    random
           000000F3  Frandom$P0SEL$0$0                  random
           000000F3  Frandom_from_sernum$B_3$0$0        random_from_sernum
           000000F3  Frandom_from_sernum$P0SEL$0$0      random_from_sernum
           000000F3  Ftime$B_3$0$0                      time
           000000F3  Ftime$P0SEL$0$0                    time
           000000F3  Fusb$B_3$0$0                       usb
           000000F3  Fusb$P0SEL$0$0                     usb
           000000F3  Fusb_cdc_acm$B_3$0$0               usb_cdc_acm
           000000F3  Fusb_cdc_acm$P0SEL$0$0             usb_cdc_acm
           000000F4  Fboard$B_4$0$0                     board
           000000F4  Fboard$P1SEL$0$0                   board
           000000F4  Fdma$B_4$0$0                       dma
           000000F4  Fdma$P1SEL$0$0                     dma
           000000F4  Fgreen_led$B_4$0$0                 green_led
           000000F4  Fgreen_led$P1SEL$0$0               green_led
           000000F4  Fradio_mac$B_4$0$0                 radio_mac
           000000F4  Fradio_mac$P1SEL$0$0               radio_mac
           000000F4  Fradio_queue$B_4$0$0               radio_queue
ASxxxx Linker V02.00 + NoICE + sdld,  page 51.
Hexadecimal  [32-Bits]

Area                                    Addr        Size        Decimal Bytes (Attributes)
--------------------------------        ----        ----        ------- ----- ------------
.	.ABS.                             00000000    00000000 =           0. bytes (ABS,CON)

      Value  Global                              Global Defined In Module
      -----  --------------------------------   ------------------------
           000000F4  Fradio_queue$P1SEL$0$0             radio_queue
           000000F4  Fradio_registers$B_4$0$0           radio_registers
           000000F4  Fradio_registers$P1SEL$0$0         radio_registers
           000000F4  Fradio_send_test_with_usb_com$B_   radio_send_test_with_usb_com
           000000F4  Fradio_send_test_with_usb_com$P1   radio_send_test_with_usb_com
           000000F4  Frandom$B_4$0$0                    random
           000000F4  Frandom$P1SEL$0$0                  random
           000000F4  Frandom_from_sernum$B_4$0$0        random_from_sernum
           000000F4  Frandom_from_sernum$P1SEL$0$0      random_from_sernum
           000000F4  Ftime$B_4$0$0                      time
           000000F4  Ftime$P1SEL$0$0                    time
           000000F4  Fusb$B_4$0$0                       usb
           000000F4  Fusb$P1SEL$0$0                     usb
           000000F4  Fusb_cdc_acm$B_4$0$0               usb_cdc_acm
           000000F4  Fusb_cdc_acm$P1SEL$0$0             usb_cdc_acm
           000000F5  Fboard$B_5$0$0                     board
           000000F5  Fboard$P2SEL$0$0                   board
           000000F5  Fdma$B_5$0$0                       dma
           000000F5  Fdma$P2SEL$0$0                     dma
           000000F5  Fgreen_led$B_5$0$0                 green_led
           000000F5  Fgreen_led$P2SEL$0$0               green_led
           000000F5  Fradio_mac$B_5$0$0                 radio_mac
           000000F5  Fradio_mac$P2SEL$0$0               radio_mac
           000000F5  Fradio_queue$B_5$0$0               radio_queue
           000000F5  Fradio_queue$P2SEL$0$0             radio_queue
           000000F5  Fradio_registers$B_5$0$0           radio_registers
           000000F5  Fradio_registers$P2SEL$0$0         radio_registers
           000000F5  Fradio_send_test_with_usb_com$B_   radio_send_test_with_usb_com
           000000F5  Fradio_send_test_with_usb_com$P2   radio_send_test_with_usb_com
           000000F5  Frandom$B_5$0$0                    random
           000000F5  Frandom$P2SEL$0$0                  random
           000000F5  Frandom_from_sernum$B_5$0$0        random_from_sernum
           000000F5  Frandom_from_sernum$P2SEL$0$0      random_from_sernum
           000000F5  Ftime$B_5$0$0                      time
           000000F5  Ftime$P2SEL$0$0                    time
           000000F5  Fusb$B_5$0$0                       usb
           000000F5  Fusb$P2SEL$0$0                     usb
           000000F5  Fusb_cdc_acm$B_5$0$0               usb_cdc_acm
           000000F5  Fusb_cdc_acm$P2SEL$0$0             usb_cdc_acm
           000000F5  _B_5                               _gptrput
           000000F6  Fboard$B_6$0$0                     board
           000000F6  Fboard$P1INP$0$0                   board
           000000F6  Fdma$B_6$0$0                       dma
           000000F6  Fdma$P1INP$0$0                     dma
           000000F6  Fgreen_led$B_6$0$0                 green_led
           000000F6  Fgreen_led$P1INP$0$0               green_led
           000000F6  Fradio_mac$B_6$0$0                 radio_mac
           000000F6  Fradio_mac$P1INP$0$0               radio_mac
           000000F6  Fradio_queue$B_6$0$0               radio_queue
           000000F6  Fradio_queue$P1INP$0$0             radio_queue
           000000F6  Fradio_registers$B_6$0$0           radio_registers
ASxxxx Linker V02.00 + NoICE + sdld,  page 52.
Hexadecimal  [32-Bits]

Area                                    Addr        Size        Decimal Bytes (Attributes)
--------------------------------        ----        ----        ------- ----- ------------
.	.ABS.                             00000000    00000000 =           0. bytes (ABS,CON)

      Value  Global                              Global Defined In Module
      -----  --------------------------------   ------------------------
           000000F6  Fradio_registers$P1INP$0$0         radio_registers
           000000F6  Fradio_send_test_with_usb_com$B_   radio_send_test_with_usb_com
           000000F6  Fradio_send_test_with_usb_com$P1   radio_send_test_with_usb_com
           000000F6  Frandom$B_6$0$0                    random
           000000F6  Frandom$P1INP$0$0                  random
           000000F6  Frandom_from_sernum$B_6$0$0        random_from_sernum
           000000F6  Frandom_from_sernum$P1INP$0$0      random_from_sernum
           000000F6  Ftime$B_6$0$0                      time
           000000F6  Ftime$P1INP$0$0                    time
           000000F6  Fusb$B_6$0$0                       usb
           000000F6  Fusb$P1INP$0$0                     usb
           000000F6  Fusb_cdc_acm$B_6$0$0               usb_cdc_acm
           000000F6  Fusb_cdc_acm$P1INP$0$0             usb_cdc_acm
           000000F6  _B_6                               _gptrput
           000000F7  Fboard$B_7$0$0                     board
           000000F7  Fboard$P2INP$0$0                   board
           000000F7  Fdma$B_7$0$0                       dma
           000000F7  Fdma$P2INP$0$0                     dma
           000000F7  Fgreen_led$B_7$0$0                 green_led
           000000F7  Fgreen_led$P2INP$0$0               green_led
           000000F7  Fradio_mac$B_7$0$0                 radio_mac
           000000F7  Fradio_mac$P2INP$0$0               radio_mac
           000000F7  Fradio_queue$B_7$0$0               radio_queue
           000000F7  Fradio_queue$P2INP$0$0             radio_queue
           000000F7  Fradio_registers$B_7$0$0           radio_registers
           000000F7  Fradio_registers$P2INP$0$0         radio_registers
           000000F7  Fradio_send_test_with_usb_com$B_   radio_send_test_with_usb_com
           000000F7  Fradio_send_test_with_usb_com$P2   radio_send_test_with_usb_com
           000000F7  Frandom$B_7$0$0                    random
           000000F7  Frandom$P2INP$0$0                  random
           000000F7  Frandom_from_sernum$B_7$0$0        random_from_sernum
           000000F7  Frandom_from_sernum$P2INP$0$0      random_from_sernum
           000000F7  Ftime$B_7$0$0                      time
           000000F7  Ftime$P2INP$0$0                    time
           000000F7  Fusb$B_7$0$0                       usb
           000000F7  Fusb$P2INP$0$0                     usb
           000000F7  Fusb_cdc_acm$B_7$0$0               usb_cdc_acm
           000000F7  Fusb_cdc_acm$P2INP$0$0             usb_cdc_acm
           000000F7  _B_7                               _gptrput
           000000F8  Fboard$U1ACTIVE$0$0                board
           000000F8  Fboard$U1CSR$0$0                   board
           000000F8  Fdma$U1ACTIVE$0$0                  dma
           000000F8  Fdma$U1CSR$0$0                     dma
           000000F8  Fgreen_led$U1ACTIVE$0$0            green_led
           000000F8  Fgreen_led$U1CSR$0$0               green_led
           000000F8  Fradio_mac$U1ACTIVE$0$0            radio_mac
           000000F8  Fradio_mac$U1CSR$0$0               radio_mac
           000000F8  Fradio_queue$U1ACTIVE$0$0          radio_queue
           000000F8  Fradio_queue$U1CSR$0$0             radio_queue
           000000F8  Fradio_registers$U1ACTIVE$0$0      radio_registers
           000000F8  Fradio_registers$U1CSR$0$0         radio_registers
ASxxxx Linker V02.00 + NoICE + sdld,  page 53.
Hexadecimal  [32-Bits]

Area                                    Addr        Size        Decimal Bytes (Attributes)
--------------------------------        ----        ----        ------- ----- ------------
.	.ABS.                             00000000    00000000 =           0. bytes (ABS,CON)

      Value  Global                              Global Defined In Module
      -----  --------------------------------   ------------------------
           000000F8  Fradio_send_test_with_usb_com$U1   radio_send_test_with_usb_com
           000000F8  Fradio_send_test_with_usb_com$U1   radio_send_test_with_usb_com
           000000F8  Frandom$U1ACTIVE$0$0               random
           000000F8  Frandom$U1CSR$0$0                  random
           000000F8  Frandom_from_sernum$U1ACTIVE$0$0   random_from_sernum
           000000F8  Frandom_from_sernum$U1CSR$0$0      random_from_sernum
           000000F8  Ftime$U1ACTIVE$0$0                 time
           000000F8  Ftime$U1CSR$0$0                    time
           000000F8  Fusb$U1ACTIVE$0$0                  usb
           000000F8  Fusb$U1CSR$0$0                     usb
           000000F8  Fusb_cdc_acm$U1ACTIVE$0$0          usb_cdc_acm
           000000F8  Fusb_cdc_acm$U1CSR$0$0             usb_cdc_acm
           000000F9  Fboard$U1DBUF$0$0                  board
           000000F9  Fboard$U1TX_BYTE$0$0               board
           000000F9  Fdma$U1DBUF$0$0                    dma
           000000F9  Fdma$U1TX_BYTE$0$0                 dma
           000000F9  Fgreen_led$U1DBUF$0$0              green_led
           000000F9  Fgreen_led$U1TX_BYTE$0$0           green_led
           000000F9  Fradio_mac$U1DBUF$0$0              radio_mac
           000000F9  Fradio_mac$U1TX_BYTE$0$0           radio_mac
           000000F9  Fradio_queue$U1DBUF$0$0            radio_queue
           000000F9  Fradio_queue$U1TX_BYTE$0$0         radio_queue
           000000F9  Fradio_registers$U1DBUF$0$0        radio_registers
           000000F9  Fradio_registers$U1TX_BYTE$0$0     radio_registers
           000000F9  Fradio_send_test_with_usb_com$U1   radio_send_test_with_usb_com
           000000F9  Fradio_send_test_with_usb_com$U1   radio_send_test_with_usb_com
           000000F9  Frandom$U1DBUF$0$0                 random
           000000F9  Frandom$U1TX_BYTE$0$0              random
           000000F9  Frandom_from_sernum$U1DBUF$0$0     random_from_sernum
           000000F9  Frandom_from_sernum$U1TX_BYTE$0$   random_from_sernum
           000000F9  Ftime$U1DBUF$0$0                   time
           000000F9  Ftime$U1TX_BYTE$0$0                time
           000000F9  Fusb$U1DBUF$0$0                    usb
           000000F9  Fusb$U1TX_BYTE$0$0                 usb
           000000F9  Fusb_cdc_acm$U1DBUF$0$0            usb_cdc_acm
           000000F9  Fusb_cdc_acm$U1TX_BYTE$0$0         usb_cdc_acm
           000000FA  Fboard$U1BAUD$0$0                  board
           000000FA  Fboard$U1RX_BYTE$0$0               board
           000000FA  Fdma$U1BAUD$0$0                    dma
           000000FA  Fdma$U1RX_BYTE$0$0                 dma
           000000FA  Fgreen_led$U1BAUD$0$0              green_led
           000000FA  Fgreen_led$U1RX_BYTE$0$0           green_led
           000000FA  Fradio_mac$U1BAUD$0$0              radio_mac
           000000FA  Fradio_mac$U1RX_BYTE$0$0           radio_mac
           000000FA  Fradio_queue$U1BAUD$0$0            radio_queue
           000000FA  Fradio_queue$U1RX_BYTE$0$0         radio_queue
           000000FA  Fradio_registers$U1BAUD$0$0        radio_registers
           000000FA  Fradio_registers$U1RX_BYTE$0$0     radio_registers
           000000FA  Fradio_send_test_with_usb_com$U1   radio_send_test_with_usb_com
           000000FA  Fradio_send_test_with_usb_com$U1   radio_send_test_with_usb_com
           000000FA  Frandom$U1BAUD$0$0                 random
ASxxxx Linker V02.00 + NoICE + sdld,  page 54.
Hexadecimal  [32-Bits]

Area                                    Addr        Size        Decimal Bytes (Attributes)
--------------------------------        ----        ----        ------- ----- ------------
.	.ABS.                             00000000    00000000 =           0. bytes (ABS,CON)

      Value  Global                              Global Defined In Module
      -----  --------------------------------   ------------------------
           000000FA  Frandom$U1RX_BYTE$0$0              random
           000000FA  Frandom_from_sernum$U1BAUD$0$0     random_from_sernum
           000000FA  Frandom_from_sernum$U1RX_BYTE$0$   random_from_sernum
           000000FA  Ftime$U1BAUD$0$0                   time
           000000FA  Ftime$U1RX_BYTE$0$0                time
           000000FA  Fusb$U1BAUD$0$0                    usb
           000000FA  Fusb$U1RX_BYTE$0$0                 usb
           000000FA  Fusb_cdc_acm$U1BAUD$0$0            usb_cdc_acm
           000000FA  Fusb_cdc_acm$U1RX_BYTE$0$0         usb_cdc_acm
           000000FB  Fboard$U1ERR$0$0                   board
           000000FB  Fboard$U1UCR$0$0                   board
           000000FB  Fdma$U1ERR$0$0                     dma
           000000FB  Fdma$U1UCR$0$0                     dma
           000000FB  Fgreen_led$U1ERR$0$0               green_led
           000000FB  Fgreen_led$U1UCR$0$0               green_led
           000000FB  Fradio_mac$U1ERR$0$0               radio_mac
           000000FB  Fradio_mac$U1UCR$0$0               radio_mac
           000000FB  Fradio_queue$U1ERR$0$0             radio_queue
           000000FB  Fradio_queue$U1UCR$0$0             radio_queue
           000000FB  Fradio_registers$U1ERR$0$0         radio_registers
           000000FB  Fradio_registers$U1UCR$0$0         radio_registers
           000000FB  Fradio_send_test_with_usb_com$U1   radio_send_test_with_usb_com
           000000FB  Fradio_send_test_with_usb_com$U1   radio_send_test_with_usb_com
           000000FB  Frandom$U1ERR$0$0                  random
           000000FB  Frandom$U1UCR$0$0                  random
           000000FB  Frandom_from_sernum$U1ERR$0$0      random_from_sernum
           000000FB  Frandom_from_sernum$U1UCR$0$0      random_from_sernum
           000000FB  Ftime$U1ERR$0$0                    time
           000000FB  Ftime$U1UCR$0$0                    time
           000000FB  Fusb$U1ERR$0$0                     usb
           000000FB  Fusb$U1UCR$0$0                     usb
           000000FB  Fusb_cdc_acm$U1ERR$0$0             usb_cdc_acm
           000000FB  Fusb_cdc_acm$U1UCR$0$0             usb_cdc_acm
           000000FC  Fboard$U1FE$0$0                    board
           000000FC  Fboard$U1GCR$0$0                   board
           000000FC  Fdma$U1FE$0$0                      dma
           000000FC  Fdma$U1GCR$0$0                     dma
           000000FC  Fgreen_led$U1FE$0$0                green_led
           000000FC  Fgreen_led$U1GCR$0$0               green_led
           000000FC  Fradio_mac$U1FE$0$0                radio_mac
           000000FC  Fradio_mac$U1GCR$0$0               radio_mac
           000000FC  Fradio_queue$U1FE$0$0              radio_queue
           000000FC  Fradio_queue$U1GCR$0$0             radio_queue
           000000FC  Fradio_registers$U1FE$0$0          radio_registers
           000000FC  Fradio_registers$U1GCR$0$0         radio_registers
           000000FC  Fradio_send_test_with_usb_com$U1   radio_send_test_with_usb_com
           000000FC  Fradio_send_test_with_usb_com$U1   radio_send_test_with_usb_com
           000000FC  Frandom$U1FE$0$0                   random
           000000FC  Frandom$U1GCR$0$0                  random
           000000FC  Frandom_from_sernum$U1FE$0$0       random_from_sernum
           000000FC  Frandom_from_sernum$U1GCR$0$0      random_from_sernum
ASxxxx Linker V02.00 + NoICE + sdld,  page 55.
Hexadecimal  [32-Bits]

Area                                    Addr        Size        Decimal Bytes (Attributes)
--------------------------------        ----        ----        ------- ----- ------------
.	.ABS.                             00000000    00000000 =           0. bytes (ABS,CON)

      Value  Global                              Global Defined In Module
      -----  --------------------------------   ------------------------
           000000FC  Ftime$U1FE$0$0                     time
           000000FC  Ftime$U1GCR$0$0                    time
           000000FC  Fusb$U1FE$0$0                      usb
           000000FC  Fusb$U1GCR$0$0                     usb
           000000FC  Fusb_cdc_acm$U1FE$0$0              usb_cdc_acm
           000000FC  Fusb_cdc_acm$U1GCR$0$0             usb_cdc_acm
           000000FD  Fboard$P0DIR$0$0                   board
           000000FD  Fboard$U1SLAVE$0$0                 board
           000000FD  Fdma$P0DIR$0$0                     dma
           000000FD  Fdma$U1SLAVE$0$0                   dma
           000000FD  Fgreen_led$P0DIR$0$0               green_led
           000000FD  Fgreen_led$U1SLAVE$0$0             green_led
           000000FD  Fradio_mac$P0DIR$0$0               radio_mac
           000000FD  Fradio_mac$U1SLAVE$0$0             radio_mac
           000000FD  Fradio_queue$P0DIR$0$0             radio_queue
           000000FD  Fradio_queue$U1SLAVE$0$0           radio_queue
           000000FD  Fradio_registers$P0DIR$0$0         radio_registers
           000000FD  Fradio_registers$U1SLAVE$0$0       radio_registers
           000000FD  Fradio_send_test_with_usb_com$P0   radio_send_test_with_usb_com
           000000FD  Fradio_send_test_with_usb_com$U1   radio_send_test_with_usb_com
           000000FD  Frandom$P0DIR$0$0                  random
           000000FD  Frandom$U1SLAVE$0$0                random
           000000FD  Frandom_from_sernum$P0DIR$0$0      random_from_sernum
           000000FD  Frandom_from_sernum$U1SLAVE$0$0    random_from_sernum
           000000FD  Ftime$P0DIR$0$0                    time
           000000FD  Ftime$U1SLAVE$0$0                  time
           000000FD  Fusb$P0DIR$0$0                     usb
           000000FD  Fusb$U1SLAVE$0$0                   usb
           000000FD  Fusb_cdc_acm$P0DIR$0$0             usb_cdc_acm
           000000FD  Fusb_cdc_acm$U1SLAVE$0$0           usb_cdc_acm
           000000FE  Fboard$P1DIR$0$0                   board
           000000FE  Fboard$U1RE$0$0                    board
           000000FE  Fdma$P1DIR$0$0                     dma
           000000FE  Fdma$U1RE$0$0                      dma
           000000FE  Fgreen_led$P1DIR$0$0               green_led
           000000FE  Fgreen_led$U1RE$0$0                green_led
           000000FE  Fradio_mac$P1DIR$0$0               radio_mac
           000000FE  Fradio_mac$U1RE$0$0                radio_mac
           000000FE  Fradio_queue$P1DIR$0$0             radio_queue
           000000FE  Fradio_queue$U1RE$0$0              radio_queue
           000000FE  Fradio_registers$P1DIR$0$0         radio_registers
           000000FE  Fradio_registers$U1RE$0$0          radio_registers
           000000FE  Fradio_send_test_with_usb_com$P1   radio_send_test_with_usb_com
           000000FE  Fradio_send_test_with_usb_com$U1   radio_send_test_with_usb_com
           000000FE  Frandom$P1DIR$0$0                  random
           000000FE  Frandom$U1RE$0$0                   random
           000000FE  Frandom_from_sernum$P1DIR$0$0      random_from_sernum
           000000FE  Frandom_from_sernum$U1RE$0$0       random_from_sernum
           000000FE  Ftime$P1DIR$0$0                    time
           000000FE  Ftime$U1RE$0$0                     time
           000000FE  Fusb$P1DIR$0$0                     usb
ASxxxx Linker V02.00 + NoICE + sdld,  page 56.
Hexadecimal  [32-Bits]

Area                                    Addr        Size        Decimal Bytes (Attributes)
--------------------------------        ----        ----        ------- ----- ------------
.	.ABS.                             00000000    00000000 =           0. bytes (ABS,CON)

      Value  Global                              Global Defined In Module
      -----  --------------------------------   ------------------------
           000000FE  Fusb$U1RE$0$0                      usb
           000000FE  Fusb_cdc_acm$P1DIR$0$0             usb_cdc_acm
           000000FE  Fusb_cdc_acm$U1RE$0$0              usb_cdc_acm
           000000FF  Fboard$P2DIR$0$0                   board
           000000FF  Fboard$U1MODE$0$0                  board
           000000FF  Fdma$P2DIR$0$0                     dma
           000000FF  Fdma$U1MODE$0$0                    dma
           000000FF  Fgreen_led$P2DIR$0$0               green_led
           000000FF  Fgreen_led$U1MODE$0$0              green_led
           000000FF  Fradio_mac$P2DIR$0$0               radio_mac
           000000FF  Fradio_mac$U1MODE$0$0              radio_mac
           000000FF  Fradio_queue$P2DIR$0$0             radio_queue
           000000FF  Fradio_queue$U1MODE$0$0            radio_queue
           000000FF  Fradio_registers$P2DIR$0$0         radio_registers
           000000FF  Fradio_registers$U1MODE$0$0        radio_registers
           000000FF  Fradio_send_test_with_usb_com$P2   radio_send_test_with_usb_com
           000000FF  Fradio_send_test_with_usb_com$U1   radio_send_test_with_usb_com
           000000FF  Frandom$P2DIR$0$0                  random
           000000FF  Frandom$U1MODE$0$0                 random
           000000FF  Frandom_from_sernum$P2DIR$0$0      random_from_sernum
           000000FF  Frandom_from_sernum$U1MODE$0$0     random_from_sernum
           000000FF  Ftime$P2DIR$0$0                    time
           000000FF  Ftime$U1MODE$0$0                   time
           000000FF  Fusb$P2DIR$0$0                     usb
           000000FF  Fusb$U1MODE$0$0                    usb
           000000FF  Fusb_cdc_acm$P2DIR$0$0             usb_cdc_acm
           000000FF  Fusb_cdc_acm$U1MODE$0$0            usb_cdc_acm
           000003CC  _bootloaderDeviceDescriptor        delay
           000003E0  _serialNumber                      delay
           000003E6  _serialNumberStringDescriptor      delay
           0000ADAC  Fboard$FADDR$0$0                   board
           0000ADAC  Fdma$FADDR$0$0                     dma
           0000ADAC  Fgreen_led$FADDR$0$0               green_led
           0000ADAC  Fradio_mac$FADDR$0$0               radio_mac
           0000ADAC  Fradio_queue$FADDR$0$0             radio_queue
           0000ADAC  Fradio_registers$FADDR$0$0         radio_registers
           0000ADAC  Fradio_send_test_with_usb_com$FA   radio_send_test_with_usb_com
           0000ADAC  Frandom$FADDR$0$0                  random
           0000ADAC  Frandom_from_sernum$FADDR$0$0      random_from_sernum
           0000ADAC  Ftime$FADDR$0$0                    time
           0000ADAC  Fusb$FADDR$0$0                     usb
           0000ADAC  Fusb_cdc_acm$FADDR$0$0             usb_cdc_acm
           0000BBBA  Fboard$ADC$0$0                     board
           0000BBBA  Fdma$ADC$0$0                       dma
           0000BBBA  Fgreen_led$ADC$0$0                 green_led
           0000BBBA  Fradio_mac$ADC$0$0                 radio_mac
           0000BBBA  Fradio_queue$ADC$0$0               radio_queue
           0000BBBA  Fradio_registers$ADC$0$0           radio_registers
           0000BBBA  Fradio_send_test_with_usb_com$AD   radio_send_test_with_usb_com
           0000BBBA  Frandom$ADC$0$0                    random
           0000BBBA  Frandom_from_sernum$ADC$0$0        random_from_sernum
ASxxxx Linker V02.00 + NoICE + sdld,  page 57.
Hexadecimal  [32-Bits]

Area                                    Addr        Size        Decimal Bytes (Attributes)
--------------------------------        ----        ----        ------- ----- ------------
.	.ABS.                             00000000    00000000 =           0. bytes (ABS,CON)

      Value  Global                              Global Defined In Module
      -----  --------------------------------   ------------------------
           0000BBBA  Ftime$ADC$0$0                      time
           0000BBBA  Fusb$ADC$0$0                       usb
           0000BBBA  Fusb_cdc_acm$ADC$0$0               usb_cdc_acm
           0000D3D2  Fboard$DMA1CFG$0$0                 board
           0000D3D2  Fdma$DMA1CFG$0$0                   dma
           0000D3D2  Fgreen_led$DMA1CFG$0$0             green_led
           0000D3D2  Fradio_mac$DMA1CFG$0$0             radio_mac
           0000D3D2  Fradio_queue$DMA1CFG$0$0           radio_queue
           0000D3D2  Fradio_registers$DMA1CFG$0$0       radio_registers
           0000D3D2  Fradio_send_test_with_usb_com$DM   radio_send_test_with_usb_com
           0000D3D2  Frandom$DMA1CFG$0$0                random
           0000D3D2  Frandom_from_sernum$DMA1CFG$0$0    random_from_sernum
           0000D3D2  Ftime$DMA1CFG$0$0                  time
           0000D3D2  Fusb$DMA1CFG$0$0                   usb
           0000D3D2  Fusb_cdc_acm$DMA1CFG$0$0           usb_cdc_acm
           0000D5D4  Fboard$DMA0CFG$0$0                 board
           0000D5D4  Fdma$DMA0CFG$0$0                   dma
           0000D5D4  Fgreen_led$DMA0CFG$0$0             green_led
           0000D5D4  Fradio_mac$DMA0CFG$0$0             radio_mac
           0000D5D4  Fradio_queue$DMA0CFG$0$0           radio_queue
           0000D5D4  Fradio_registers$DMA0CFG$0$0       radio_registers
           0000D5D4  Fradio_send_test_with_usb_com$DM   radio_send_test_with_usb_com
           0000D5D4  Frandom$DMA0CFG$0$0                random
           0000D5D4  Frandom_from_sernum$DMA0CFG$0$0    random_from_sernum
           0000D5D4  Ftime$DMA0CFG$0$0                  time
           0000D5D4  Fusb$DMA0CFG$0$0                   usb
           0000D5D4  Fusb_cdc_acm$DMA0CFG$0$0           usb_cdc_acm
           0000DBDA  Fboard$T1CC0$0$0                   board
           0000DBDA  Fdma$T1CC0$0$0                     dma
           0000DBDA  Fgreen_led$T1CC0$0$0               green_led
           0000DBDA  Fradio_mac$T1CC0$0$0               radio_mac
           0000DBDA  Fradio_queue$T1CC0$0$0             radio_queue
           0000DBDA  Fradio_registers$T1CC0$0$0         radio_registers
           0000DBDA  Fradio_send_test_with_usb_com$T1   radio_send_test_with_usb_com
           0000DBDA  Frandom$T1CC0$0$0                  random
           0000DBDA  Frandom_from_sernum$T1CC0$0$0      random_from_sernum
           0000DBDA  Ftime$T1CC0$0$0                    time
           0000DBDA  Fusb$T1CC0$0$0                     usb
           0000DBDA  Fusb_cdc_acm$T1CC0$0$0             usb_cdc_acm
           0000DDDC  Fboard$T1CC1$0$0                   board
           0000DDDC  Fdma$T1CC1$0$0                     dma
           0000DDDC  Fgreen_led$T1CC1$0$0               green_led
           0000DDDC  Fradio_mac$T1CC1$0$0               radio_mac
           0000DDDC  Fradio_queue$T1CC1$0$0             radio_queue
           0000DDDC  Fradio_registers$T1CC1$0$0         radio_registers
           0000DDDC  Fradio_send_test_with_usb_com$T1   radio_send_test_with_usb_com
           0000DDDC  Frandom$T1CC1$0$0                  random
           0000DDDC  Frandom_from_sernum$T1CC1$0$0      random_from_sernum
           0000DDDC  Ftime$T1CC1$0$0                    time
           0000DDDC  Fusb$T1CC1$0$0                     usb
           0000DDDC  Fusb_cdc_acm$T1CC1$0$0             usb_cdc_acm
ASxxxx Linker V02.00 + NoICE + sdld,  page 58.
Hexadecimal  [32-Bits]

Area                                    Addr        Size        Decimal Bytes (Attributes)
--------------------------------        ----        ----        ------- ----- ------------
.	.ABS.                             00000000    00000000 =           0. bytes (ABS,CON)

      Value  Global                              Global Defined In Module
      -----  --------------------------------   ------------------------
           0000DE00  Fboard$USBADDR$0$0                 board
           0000DE00  Fdma$USBADDR$0$0                   dma
           0000DE00  Fgreen_led$USBADDR$0$0             green_led
           0000DE00  Fradio_mac$USBADDR$0$0             radio_mac
           0000DE00  Fradio_queue$USBADDR$0$0           radio_queue
           0000DE00  Fradio_registers$USBADDR$0$0       radio_registers
           0000DE00  Fradio_send_test_with_usb_com$US   radio_send_test_with_usb_com
           0000DE00  Frandom$USBADDR$0$0                random
           0000DE00  Frandom_from_sernum$USBADDR$0$0    random_from_sernum
           0000DE00  Ftime$USBADDR$0$0                  time
           0000DE00  Fusb$USBADDR$0$0                   usb
           0000DE00  Fusb_cdc_acm$USBADDR$0$0           usb_cdc_acm
           0000DE01  Fboard$USBPOW$0$0                  board
           0000DE01  Fdma$USBPOW$0$0                    dma
           0000DE01  Fgreen_led$USBPOW$0$0              green_led
           0000DE01  Fradio_mac$USBPOW$0$0              radio_mac
           0000DE01  Fradio_queue$USBPOW$0$0            radio_queue
           0000DE01  Fradio_registers$USBPOW$0$0        radio_registers
           0000DE01  Fradio_send_test_with_usb_com$US   radio_send_test_with_usb_com
           0000DE01  Frandom$USBPOW$0$0                 random
           0000DE01  Frandom_from_sernum$USBPOW$0$0     random_from_sernum
           0000DE01  Ftime$USBPOW$0$0                   time
           0000DE01  Fusb$USBPOW$0$0                    usb
           0000DE01  Fusb_cdc_acm$USBPOW$0$0            usb_cdc_acm
           0000DE02  Fboard$USBIIF$0$0                  board
           0000DE02  Fdma$USBIIF$0$0                    dma
           0000DE02  Fgreen_led$USBIIF$0$0              green_led
           0000DE02  Fradio_mac$USBIIF$0$0              radio_mac
           0000DE02  Fradio_queue$USBIIF$0$0            radio_queue
           0000DE02  Fradio_registers$USBIIF$0$0        radio_registers
           0000DE02  Fradio_send_test_with_usb_com$US   radio_send_test_with_usb_com
           0000DE02  Frandom$USBIIF$0$0                 random
           0000DE02  Frandom_from_sernum$USBIIF$0$0     random_from_sernum
           0000DE02  Ftime$USBIIF$0$0                   time
           0000DE02  Fusb$USBIIF$0$0                    usb
           0000DE02  Fusb_cdc_acm$USBIIF$0$0            usb_cdc_acm
           0000DE04  Fboard$USBOIF$0$0                  board
           0000DE04  Fdma$USBOIF$0$0                    dma
           0000DE04  Fgreen_led$USBOIF$0$0              green_led
           0000DE04  Fradio_mac$USBOIF$0$0              radio_mac
           0000DE04  Fradio_queue$USBOIF$0$0            radio_queue
           0000DE04  Fradio_registers$USBOIF$0$0        radio_registers
           0000DE04  Fradio_send_test_with_usb_com$US   radio_send_test_with_usb_com
           0000DE04  Frandom$USBOIF$0$0                 random
           0000DE04  Frandom_from_sernum$USBOIF$0$0     random_from_sernum
           0000DE04  Ftime$USBOIF$0$0                   time
           0000DE04  Fusb$USBOIF$0$0                    usb
           0000DE04  Fusb_cdc_acm$USBOIF$0$0            usb_cdc_acm
           0000DE06  Fboard$USBCIF$0$0                  board
           0000DE06  Fdma$USBCIF$0$0                    dma
           0000DE06  Fgreen_led$USBCIF$0$0              green_led
ASxxxx Linker V02.00 + NoICE + sdld,  page 59.
Hexadecimal  [32-Bits]

Area                                    Addr        Size        Decimal Bytes (Attributes)
--------------------------------        ----        ----        ------- ----- ------------
.	.ABS.                             00000000    00000000 =           0. bytes (ABS,CON)

      Value  Global                              Global Defined In Module
      -----  --------------------------------   ------------------------
           0000DE06  Fradio_mac$USBCIF$0$0              radio_mac
           0000DE06  Fradio_queue$USBCIF$0$0            radio_queue
           0000DE06  Fradio_registers$USBCIF$0$0        radio_registers
           0000DE06  Fradio_send_test_with_usb_com$US   radio_send_test_with_usb_com
           0000DE06  Frandom$USBCIF$0$0                 random
           0000DE06  Frandom_from_sernum$USBCIF$0$0     random_from_sernum
           0000DE06  Ftime$USBCIF$0$0                   time
           0000DE06  Fusb$USBCIF$0$0                    usb
           0000DE06  Fusb_cdc_acm$USBCIF$0$0            usb_cdc_acm
           0000DE07  Fboard$USBIIE$0$0                  board
           0000DE07  Fdma$USBIIE$0$0                    dma
           0000DE07  Fgreen_led$USBIIE$0$0              green_led
           0000DE07  Fradio_mac$USBIIE$0$0              radio_mac
           0000DE07  Fradio_queue$USBIIE$0$0            radio_queue
           0000DE07  Fradio_registers$USBIIE$0$0        radio_registers
           0000DE07  Fradio_send_test_with_usb_com$US   radio_send_test_with_usb_com
           0000DE07  Frandom$USBIIE$0$0                 random
           0000DE07  Frandom_from_sernum$USBIIE$0$0     random_from_sernum
           0000DE07  Ftime$USBIIE$0$0                   time
           0000DE07  Fusb$USBIIE$0$0                    usb
           0000DE07  Fusb_cdc_acm$USBIIE$0$0            usb_cdc_acm
           0000DE09  Fboard$USBOIE$0$0                  board
           0000DE09  Fdma$USBOIE$0$0                    dma
           0000DE09  Fgreen_led$USBOIE$0$0              green_led
           0000DE09  Fradio_mac$USBOIE$0$0              radio_mac
           0000DE09  Fradio_queue$USBOIE$0$0            radio_queue
           0000DE09  Fradio_registers$USBOIE$0$0        radio_registers
           0000DE09  Fradio_send_test_with_usb_com$US   radio_send_test_with_usb_com
           0000DE09  Frandom$USBOIE$0$0                 random
           0000DE09  Frandom_from_sernum$USBOIE$0$0     random_from_sernum
           0000DE09  Ftime$USBOIE$0$0                   time
           0000DE09  Fusb$USBOIE$0$0                    usb
           0000DE09  Fusb_cdc_acm$USBOIE$0$0            usb_cdc_acm
           0000DE0B  Fboard$USBCIE$0$0                  board
           0000DE0B  Fdma$USBCIE$0$0                    dma
           0000DE0B  Fgreen_led$USBCIE$0$0              green_led
           0000DE0B  Fradio_mac$USBCIE$0$0              radio_mac
           0000DE0B  Fradio_queue$USBCIE$0$0            radio_queue
           0000DE0B  Fradio_registers$USBCIE$0$0        radio_registers
           0000DE0B  Fradio_send_test_with_usb_com$US   radio_send_test_with_usb_com
           0000DE0B  Frandom$USBCIE$0$0                 random
           0000DE0B  Frandom_from_sernum$USBCIE$0$0     random_from_sernum
           0000DE0B  Ftime$USBCIE$0$0                   time
           0000DE0B  Fusb$USBCIE$0$0                    usb
           0000DE0B  Fusb_cdc_acm$USBCIE$0$0            usb_cdc_acm
           0000DE0C  Fboard$USBFRML$0$0                 board
           0000DE0C  Fdma$USBFRML$0$0                   dma
           0000DE0C  Fgreen_led$USBFRML$0$0             green_led
           0000DE0C  Fradio_mac$USBFRML$0$0             radio_mac
           0000DE0C  Fradio_queue$USBFRML$0$0           radio_queue
           0000DE0C  Fradio_registers$USBFRML$0$0       radio_registers
ASxxxx Linker V02.00 + NoICE + sdld,  page 60.
Hexadecimal  [32-Bits]

Area                                    Addr        Size        Decimal Bytes (Attributes)
--------------------------------        ----        ----        ------- ----- ------------
.	.ABS.                             00000000    00000000 =           0. bytes (ABS,CON)

      Value  Global                              Global Defined In Module
      -----  --------------------------------   ------------------------
           0000DE0C  Fradio_send_test_with_usb_com$US   radio_send_test_with_usb_com
           0000DE0C  Frandom$USBFRML$0$0                random
           0000DE0C  Frandom_from_sernum$USBFRML$0$0    random_from_sernum
           0000DE0C  Ftime$USBFRML$0$0                  time
           0000DE0C  Fusb$USBFRML$0$0                   usb
           0000DE0C  Fusb_cdc_acm$USBFRML$0$0           usb_cdc_acm
           0000DE0D  Fboard$USBFRMH$0$0                 board
           0000DE0D  Fdma$USBFRMH$0$0                   dma
           0000DE0D  Fgreen_led$USBFRMH$0$0             green_led
           0000DE0D  Fradio_mac$USBFRMH$0$0             radio_mac
           0000DE0D  Fradio_queue$USBFRMH$0$0           radio_queue
           0000DE0D  Fradio_registers$USBFRMH$0$0       radio_registers
           0000DE0D  Fradio_send_test_with_usb_com$US   radio_send_test_with_usb_com
           0000DE0D  Frandom$USBFRMH$0$0                random
           0000DE0D  Frandom_from_sernum$USBFRMH$0$0    random_from_sernum
           0000DE0D  Ftime$USBFRMH$0$0                  time
           0000DE0D  Fusb$USBFRMH$0$0                   usb
           0000DE0D  Fusb_cdc_acm$USBFRMH$0$0           usb_cdc_acm
           0000DE0E  Fboard$USBINDEX$0$0                board
           0000DE0E  Fdma$USBINDEX$0$0                  dma
           0000DE0E  Fgreen_led$USBINDEX$0$0            green_led
           0000DE0E  Fradio_mac$USBINDEX$0$0            radio_mac
           0000DE0E  Fradio_queue$USBINDEX$0$0          radio_queue
           0000DE0E  Fradio_registers$USBINDEX$0$0      radio_registers
           0000DE0E  Fradio_send_test_with_usb_com$US   radio_send_test_with_usb_com
           0000DE0E  Frandom$USBINDEX$0$0               random
           0000DE0E  Frandom_from_sernum$USBINDEX$0$0   random_from_sernum
           0000DE0E  Ftime$USBINDEX$0$0                 time
           0000DE0E  Fusb$USBINDEX$0$0                  usb
           0000DE0E  Fusb_cdc_acm$USBINDEX$0$0          usb_cdc_acm
           0000DE10  Fboard$USBMAXI$0$0                 board
           0000DE10  Fdma$USBMAXI$0$0                   dma
           0000DE10  Fgreen_led$USBMAXI$0$0             green_led
           0000DE10  Fradio_mac$USBMAXI$0$0             radio_mac
           0000DE10  Fradio_queue$USBMAXI$0$0           radio_queue
           0000DE10  Fradio_registers$USBMAXI$0$0       radio_registers
           0000DE10  Fradio_send_test_with_usb_com$US   radio_send_test_with_usb_com
           0000DE10  Frandom$USBMAXI$0$0                random
           0000DE10  Frandom_from_sernum$USBMAXI$0$0    random_from_sernum
           0000DE10  Ftime$USBMAXI$0$0                  time
           0000DE10  Fusb$USBMAXI$0$0                   usb
           0000DE10  Fusb_cdc_acm$USBMAXI$0$0           usb_cdc_acm
           0000DE11  Fboard$USBCSIL$0$0                 board
           0000DE11  Fdma$USBCSIL$0$0                   dma
           0000DE11  Fgreen_led$USBCSIL$0$0             green_led
           0000DE11  Fradio_mac$USBCSIL$0$0             radio_mac
           0000DE11  Fradio_queue$USBCSIL$0$0           radio_queue
           0000DE11  Fradio_registers$USBCSIL$0$0       radio_registers
           0000DE11  Fradio_send_test_with_usb_com$US   radio_send_test_with_usb_com
           0000DE11  Frandom$USBCSIL$0$0                random
           0000DE11  Frandom_from_sernum$USBCSIL$0$0    random_from_sernum
ASxxxx Linker V02.00 + NoICE + sdld,  page 61.
Hexadecimal  [32-Bits]

Area                                    Addr        Size        Decimal Bytes (Attributes)
--------------------------------        ----        ----        ------- ----- ------------
.	.ABS.                             00000000    00000000 =           0. bytes (ABS,CON)

      Value  Global                              Global Defined In Module
      -----  --------------------------------   ------------------------
           0000DE11  Ftime$USBCSIL$0$0                  time
           0000DE11  Fusb$USBCSIL$0$0                   usb
           0000DE11  Fusb_cdc_acm$USBCSIL$0$0           usb_cdc_acm
           0000DE12  Fboard$USBCSIH$0$0                 board
           0000DE12  Fdma$USBCSIH$0$0                   dma
           0000DE12  Fgreen_led$USBCSIH$0$0             green_led
           0000DE12  Fradio_mac$USBCSIH$0$0             radio_mac
           0000DE12  Fradio_queue$USBCSIH$0$0           radio_queue
           0000DE12  Fradio_registers$USBCSIH$0$0       radio_registers
           0000DE12  Fradio_send_test_with_usb_com$US   radio_send_test_with_usb_com
           0000DE12  Frandom$USBCSIH$0$0                random
           0000DE12  Frandom_from_sernum$USBCSIH$0$0    random_from_sernum
           0000DE12  Ftime$USBCSIH$0$0                  time
           0000DE12  Fusb$USBCSIH$0$0                   usb
           0000DE12  Fusb_cdc_acm$USBCSIH$0$0           usb_cdc_acm
           0000DE13  Fboard$USBMAXO$0$0                 board
           0000DE13  Fdma$USBMAXO$0$0                   dma
           0000DE13  Fgreen_led$USBMAXO$0$0             green_led
           0000DE13  Fradio_mac$USBMAXO$0$0             radio_mac
           0000DE13  Fradio_queue$USBMAXO$0$0           radio_queue
           0000DE13  Fradio_registers$USBMAXO$0$0       radio_registers
           0000DE13  Fradio_send_test_with_usb_com$US   radio_send_test_with_usb_com
           0000DE13  Frandom$USBMAXO$0$0                random
           0000DE13  Frandom_from_sernum$USBMAXO$0$0    random_from_sernum
           0000DE13  Ftime$USBMAXO$0$0                  time
           0000DE13  Fusb$USBMAXO$0$0                   usb
           0000DE13  Fusb_cdc_acm$USBMAXO$0$0           usb_cdc_acm
           0000DE14  Fboard$USBCSOL$0$0                 board
           0000DE14  Fdma$USBCSOL$0$0                   dma
           0000DE14  Fgreen_led$USBCSOL$0$0             green_led
           0000DE14  Fradio_mac$USBCSOL$0$0             radio_mac
           0000DE14  Fradio_queue$USBCSOL$0$0           radio_queue
           0000DE14  Fradio_registers$USBCSOL$0$0       radio_registers
           0000DE14  Fradio_send_test_with_usb_com$US   radio_send_test_with_usb_com
           0000DE14  Frandom$USBCSOL$0$0                random
           0000DE14  Frandom_from_sernum$USBCSOL$0$0    random_from_sernum
           0000DE14  Ftime$USBCSOL$0$0                  time
           0000DE14  Fusb$USBCSOL$0$0                   usb
           0000DE14  Fusb_cdc_acm$USBCSOL$0$0           usb_cdc_acm
           0000DE15  Fboard$USBCSOH$0$0                 board
           0000DE15  Fdma$USBCSOH$0$0                   dma
           0000DE15  Fgreen_led$USBCSOH$0$0             green_led
           0000DE15  Fradio_mac$USBCSOH$0$0             radio_mac
           0000DE15  Fradio_queue$USBCSOH$0$0           radio_queue
           0000DE15  Fradio_registers$USBCSOH$0$0       radio_registers
           0000DE15  Fradio_send_test_with_usb_com$US   radio_send_test_with_usb_com
           0000DE15  Frandom$USBCSOH$0$0                random
           0000DE15  Frandom_from_sernum$USBCSOH$0$0    random_from_sernum
           0000DE15  Ftime$USBCSOH$0$0                  time
           0000DE15  Fusb$USBCSOH$0$0                   usb
           0000DE15  Fusb_cdc_acm$USBCSOH$0$0           usb_cdc_acm
ASxxxx Linker V02.00 + NoICE + sdld,  page 62.
Hexadecimal  [32-Bits]

Area                                    Addr        Size        Decimal Bytes (Attributes)
--------------------------------        ----        ----        ------- ----- ------------
.	.ABS.                             00000000    00000000 =           0. bytes (ABS,CON)

      Value  Global                              Global Defined In Module
      -----  --------------------------------   ------------------------
           0000DE16  Fboard$USBCNTL$0$0                 board
           0000DE16  Fdma$USBCNTL$0$0                   dma
           0000DE16  Fgreen_led$USBCNTL$0$0             green_led
           0000DE16  Fradio_mac$USBCNTL$0$0             radio_mac
           0000DE16  Fradio_queue$USBCNTL$0$0           radio_queue
           0000DE16  Fradio_registers$USBCNTL$0$0       radio_registers
           0000DE16  Fradio_send_test_with_usb_com$US   radio_send_test_with_usb_com
           0000DE16  Frandom$USBCNTL$0$0                random
           0000DE16  Frandom_from_sernum$USBCNTL$0$0    random_from_sernum
           0000DE16  Ftime$USBCNTL$0$0                  time
           0000DE16  Fusb$USBCNTL$0$0                   usb
           0000DE16  Fusb_cdc_acm$USBCNTL$0$0           usb_cdc_acm
           0000DE17  Fboard$USBCNTH$0$0                 board
           0000DE17  Fdma$USBCNTH$0$0                   dma
           0000DE17  Fgreen_led$USBCNTH$0$0             green_led
           0000DE17  Fradio_mac$USBCNTH$0$0             radio_mac
           0000DE17  Fradio_queue$USBCNTH$0$0           radio_queue
           0000DE17  Fradio_registers$USBCNTH$0$0       radio_registers
           0000DE17  Fradio_send_test_with_usb_com$US   radio_send_test_with_usb_com
           0000DE17  Frandom$USBCNTH$0$0                random
           0000DE17  Frandom_from_sernum$USBCNTH$0$0    random_from_sernum
           0000DE17  Ftime$USBCNTH$0$0                  time
           0000DE17  Fusb$USBCNTH$0$0                   usb
           0000DE17  Fusb_cdc_acm$USBCNTH$0$0           usb_cdc_acm
           0000DE20  Fboard$USBF0$0$0                   board
           0000DE20  Fdma$USBF0$0$0                     dma
           0000DE20  Fgreen_led$USBF0$0$0               green_led
           0000DE20  Fradio_mac$USBF0$0$0               radio_mac
           0000DE20  Fradio_queue$USBF0$0$0             radio_queue
           0000DE20  Fradio_registers$USBF0$0$0         radio_registers
           0000DE20  Fradio_send_test_with_usb_com$US   radio_send_test_with_usb_com
           0000DE20  Frandom$USBF0$0$0                  random
           0000DE20  Frandom_from_sernum$USBF0$0$0      random_from_sernum
           0000DE20  Ftime$USBF0$0$0                    time
           0000DE20  Fusb$USBF0$0$0                     usb
           0000DE20  Fusb_cdc_acm$USBF0$0$0             usb_cdc_acm
           0000DE22  Fboard$USBF1$0$0                   board
           0000DE22  Fdma$USBF1$0$0                     dma
           0000DE22  Fgreen_led$USBF1$0$0               green_led
           0000DE22  Fradio_mac$USBF1$0$0               radio_mac
           0000DE22  Fradio_queue$USBF1$0$0             radio_queue
           0000DE22  Fradio_registers$USBF1$0$0         radio_registers
           0000DE22  Fradio_send_test_with_usb_com$US   radio_send_test_with_usb_com
           0000DE22  Frandom$USBF1$0$0                  random
           0000DE22  Frandom_from_sernum$USBF1$0$0      random_from_sernum
           0000DE22  Ftime$USBF1$0$0                    time
           0000DE22  Fusb$USBF1$0$0                     usb
           0000DE22  Fusb_cdc_acm$USBF1$0$0             usb_cdc_acm
           0000DE24  Fboard$USBF2$0$0                   board
           0000DE24  Fdma$USBF2$0$0                     dma
           0000DE24  Fgreen_led$USBF2$0$0               green_led
ASxxxx Linker V02.00 + NoICE + sdld,  page 63.
Hexadecimal  [32-Bits]

Area                                    Addr        Size        Decimal Bytes (Attributes)
--------------------------------        ----        ----        ------- ----- ------------
.	.ABS.                             00000000    00000000 =           0. bytes (ABS,CON)

      Value  Global                              Global Defined In Module
      -----  --------------------------------   ------------------------
           0000DE24  Fradio_mac$USBF2$0$0               radio_mac
           0000DE24  Fradio_queue$USBF2$0$0             radio_queue
           0000DE24  Fradio_registers$USBF2$0$0         radio_registers
           0000DE24  Fradio_send_test_with_usb_com$US   radio_send_test_with_usb_com
           0000DE24  Frandom$USBF2$0$0                  random
           0000DE24  Frandom_from_sernum$USBF2$0$0      random_from_sernum
           0000DE24  Ftime$USBF2$0$0                    time
           0000DE24  Fusb$USBF2$0$0                     usb
           0000DE24  Fusb_cdc_acm$USBF2$0$0             usb_cdc_acm
           0000DE26  Fboard$USBF3$0$0                   board
           0000DE26  Fdma$USBF3$0$0                     dma
           0000DE26  Fgreen_led$USBF3$0$0               green_led
           0000DE26  Fradio_mac$USBF3$0$0               radio_mac
           0000DE26  Fradio_queue$USBF3$0$0             radio_queue
           0000DE26  Fradio_registers$USBF3$0$0         radio_registers
           0000DE26  Fradio_send_test_with_usb_com$US   radio_send_test_with_usb_com
           0000DE26  Frandom$USBF3$0$0                  random
           0000DE26  Frandom_from_sernum$USBF3$0$0      random_from_sernum
           0000DE26  Ftime$USBF3$0$0                    time
           0000DE26  Fusb$USBF3$0$0                     usb
           0000DE26  Fusb_cdc_acm$USBF3$0$0             usb_cdc_acm
           0000DE28  Fboard$USBF4$0$0                   board
           0000DE28  Fdma$USBF4$0$0                     dma
           0000DE28  Fgreen_led$USBF4$0$0               green_led
           0000DE28  Fradio_mac$USBF4$0$0               radio_mac
           0000DE28  Fradio_queue$USBF4$0$0             radio_queue
           0000DE28  Fradio_registers$USBF4$0$0         radio_registers
           0000DE28  Fradio_send_test_with_usb_com$US   radio_send_test_with_usb_com
           0000DE28  Frandom$USBF4$0$0                  random
           0000DE28  Frandom_from_sernum$USBF4$0$0      random_from_sernum
           0000DE28  Ftime$USBF4$0$0                    time
           0000DE28  Fusb$USBF4$0$0                     usb
           0000DE28  Fusb_cdc_acm$USBF4$0$0             usb_cdc_acm
           0000DE2A  Fboard$USBF5$0$0                   board
           0000DE2A  Fdma$USBF5$0$0                     dma
           0000DE2A  Fgreen_led$USBF5$0$0               green_led
           0000DE2A  Fradio_mac$USBF5$0$0               radio_mac
           0000DE2A  Fradio_queue$USBF5$0$0             radio_queue
           0000DE2A  Fradio_registers$USBF5$0$0         radio_registers
           0000DE2A  Fradio_send_test_with_usb_com$US   radio_send_test_with_usb_com
           0000DE2A  Frandom$USBF5$0$0                  random
           0000DE2A  Frandom_from_sernum$USBF5$0$0      random_from_sernum
           0000DE2A  Ftime$USBF5$0$0                    time
           0000DE2A  Fusb$USBF5$0$0                     usb
           0000DE2A  Fusb_cdc_acm$USBF5$0$0             usb_cdc_acm
           0000DF00  Fboard$SYNC1$0$0                   board
           0000DF00  Fdma$SYNC1$0$0                     dma
           0000DF00  Fgreen_led$SYNC1$0$0               green_led
           0000DF00  Fradio_mac$SYNC1$0$0               radio_mac
           0000DF00  Fradio_queue$SYNC1$0$0             radio_queue
           0000DF00  Fradio_registers$SYNC1$0$0         radio_registers
ASxxxx Linker V02.00 + NoICE + sdld,  page 64.
Hexadecimal  [32-Bits]

Area                                    Addr        Size        Decimal Bytes (Attributes)
--------------------------------        ----        ----        ------- ----- ------------
.	.ABS.                             00000000    00000000 =           0. bytes (ABS,CON)

      Value  Global                              Global Defined In Module
      -----  --------------------------------   ------------------------
           0000DF00  Fradio_send_test_with_usb_com$SY   radio_send_test_with_usb_com
           0000DF00  Frandom$SYNC1$0$0                  random
           0000DF00  Frandom_from_sernum$SYNC1$0$0      random_from_sernum
           0000DF00  Ftime$SYNC1$0$0                    time
           0000DF00  Fusb$SYNC1$0$0                     usb
           0000DF00  Fusb_cdc_acm$SYNC1$0$0             usb_cdc_acm
           0000DF01  Fboard$SYNC0$0$0                   board
           0000DF01  Fdma$SYNC0$0$0                     dma
           0000DF01  Fgreen_led$SYNC0$0$0               green_led
           0000DF01  Fradio_mac$SYNC0$0$0               radio_mac
           0000DF01  Fradio_queue$SYNC0$0$0             radio_queue
           0000DF01  Fradio_registers$SYNC0$0$0         radio_registers
           0000DF01  Fradio_send_test_with_usb_com$SY   radio_send_test_with_usb_com
           0000DF01  Frandom$SYNC0$0$0                  random
           0000DF01  Frandom_from_sernum$SYNC0$0$0      random_from_sernum
           0000DF01  Ftime$SYNC0$0$0                    time
           0000DF01  Fusb$SYNC0$0$0                     usb
           0000DF01  Fusb_cdc_acm$SYNC0$0$0             usb_cdc_acm
           0000DF02  Fboard$PKTLEN$0$0                  board
           0000DF02  Fdma$PKTLEN$0$0                    dma
           0000DF02  Fgreen_led$PKTLEN$0$0              green_led
           0000DF02  Fradio_mac$PKTLEN$0$0              radio_mac
           0000DF02  Fradio_queue$PKTLEN$0$0            radio_queue
           0000DF02  Fradio_registers$PKTLEN$0$0        radio_registers
           0000DF02  Fradio_send_test_with_usb_com$PK   radio_send_test_with_usb_com
           0000DF02  Frandom$PKTLEN$0$0                 random
           0000DF02  Frandom_from_sernum$PKTLEN$0$0     random_from_sernum
           0000DF02  Ftime$PKTLEN$0$0                   time
           0000DF02  Fusb$PKTLEN$0$0                    usb
           0000DF02  Fusb_cdc_acm$PKTLEN$0$0            usb_cdc_acm
           0000DF03  Fboard$PKTCTRL1$0$0                board
           0000DF03  Fdma$PKTCTRL1$0$0                  dma
           0000DF03  Fgreen_led$PKTCTRL1$0$0            green_led
           0000DF03  Fradio_mac$PKTCTRL1$0$0            radio_mac
           0000DF03  Fradio_queue$PKTCTRL1$0$0          radio_queue
           0000DF03  Fradio_registers$PKTCTRL1$0$0      radio_registers
           0000DF03  Fradio_send_test_with_usb_com$PK   radio_send_test_with_usb_com
           0000DF03  Frandom$PKTCTRL1$0$0               random
           0000DF03  Frandom_from_sernum$PKTCTRL1$0$0   random_from_sernum
           0000DF03  Ftime$PKTCTRL1$0$0                 time
           0000DF03  Fusb$PKTCTRL1$0$0                  usb
           0000DF03  Fusb_cdc_acm$PKTCTRL1$0$0          usb_cdc_acm
           0000DF04  Fboard$PKTCTRL0$0$0                board
           0000DF04  Fdma$PKTCTRL0$0$0                  dma
           0000DF04  Fgreen_led$PKTCTRL0$0$0            green_led
           0000DF04  Fradio_mac$PKTCTRL0$0$0            radio_mac
           0000DF04  Fradio_queue$PKTCTRL0$0$0          radio_queue
           0000DF04  Fradio_registers$PKTCTRL0$0$0      radio_registers
           0000DF04  Fradio_send_test_with_usb_com$PK   radio_send_test_with_usb_com
           0000DF04  Frandom$PKTCTRL0$0$0               random
           0000DF04  Frandom_from_sernum$PKTCTRL0$0$0   random_from_sernum
ASxxxx Linker V02.00 + NoICE + sdld,  page 65.
Hexadecimal  [32-Bits]

Area                                    Addr        Size        Decimal Bytes (Attributes)
--------------------------------        ----        ----        ------- ----- ------------
.	.ABS.                             00000000    00000000 =           0. bytes (ABS,CON)

      Value  Global                              Global Defined In Module
      -----  --------------------------------   ------------------------
           0000DF04  Ftime$PKTCTRL0$0$0                 time
           0000DF04  Fusb$PKTCTRL0$0$0                  usb
           0000DF04  Fusb_cdc_acm$PKTCTRL0$0$0          usb_cdc_acm
           0000DF05  Fboard$ADDR$0$0                    board
           0000DF05  Fdma$ADDR$0$0                      dma
           0000DF05  Fgreen_led$ADDR$0$0                green_led
           0000DF05  Fradio_mac$ADDR$0$0                radio_mac
           0000DF05  Fradio_queue$ADDR$0$0              radio_queue
           0000DF05  Fradio_registers$ADDR$0$0          radio_registers
           0000DF05  Fradio_send_test_with_usb_com$AD   radio_send_test_with_usb_com
           0000DF05  Frandom$ADDR$0$0                   random
           0000DF05  Frandom_from_sernum$ADDR$0$0       random_from_sernum
           0000DF05  Ftime$ADDR$0$0                     time
           0000DF05  Fusb$ADDR$0$0                      usb
           0000DF05  Fusb_cdc_acm$ADDR$0$0              usb_cdc_acm
           0000DF06  Fboard$CHANNR$0$0                  board
           0000DF06  Fdma$CHANNR$0$0                    dma
           0000DF06  Fgreen_led$CHANNR$0$0              green_led
           0000DF06  Fradio_mac$CHANNR$0$0              radio_mac
           0000DF06  Fradio_queue$CHANNR$0$0            radio_queue
           0000DF06  Fradio_registers$CHANNR$0$0        radio_registers
           0000DF06  Fradio_send_test_with_usb_com$CH   radio_send_test_with_usb_com
           0000DF06  Frandom$CHANNR$0$0                 random
           0000DF06  Frandom_from_sernum$CHANNR$0$0     random_from_sernum
           0000DF06  Ftime$CHANNR$0$0                   time
           0000DF06  Fusb$CHANNR$0$0                    usb
           0000DF06  Fusb_cdc_acm$CHANNR$0$0            usb_cdc_acm
           0000DF07  Fboard$FSCTRL1$0$0                 board
           0000DF07  Fdma$FSCTRL1$0$0                   dma
           0000DF07  Fgreen_led$FSCTRL1$0$0             green_led
           0000DF07  Fradio_mac$FSCTRL1$0$0             radio_mac
           0000DF07  Fradio_queue$FSCTRL1$0$0           radio_queue
           0000DF07  Fradio_registers$FSCTRL1$0$0       radio_registers
           0000DF07  Fradio_send_test_with_usb_com$FS   radio_send_test_with_usb_com
           0000DF07  Frandom$FSCTRL1$0$0                random
           0000DF07  Frandom_from_sernum$FSCTRL1$0$0    random_from_sernum
           0000DF07  Ftime$FSCTRL1$0$0                  time
           0000DF07  Fusb$FSCTRL1$0$0                   usb
           0000DF07  Fusb_cdc_acm$FSCTRL1$0$0           usb_cdc_acm
           0000DF08  Fboard$FSCTRL0$0$0                 board
           0000DF08  Fdma$FSCTRL0$0$0                   dma
           0000DF08  Fgreen_led$FSCTRL0$0$0             green_led
           0000DF08  Fradio_mac$FSCTRL0$0$0             radio_mac
           0000DF08  Fradio_queue$FSCTRL0$0$0           radio_queue
           0000DF08  Fradio_registers$FSCTRL0$0$0       radio_registers
           0000DF08  Fradio_send_test_with_usb_com$FS   radio_send_test_with_usb_com
           0000DF08  Frandom$FSCTRL0$0$0                random
           0000DF08  Frandom_from_sernum$FSCTRL0$0$0    random_from_sernum
           0000DF08  Ftime$FSCTRL0$0$0                  time
           0000DF08  Fusb$FSCTRL0$0$0                   usb
           0000DF08  Fusb_cdc_acm$FSCTRL0$0$0           usb_cdc_acm
ASxxxx Linker V02.00 + NoICE + sdld,  page 66.
Hexadecimal  [32-Bits]

Area                                    Addr        Size        Decimal Bytes (Attributes)
--------------------------------        ----        ----        ------- ----- ------------
.	.ABS.                             00000000    00000000 =           0. bytes (ABS,CON)

      Value  Global                              Global Defined In Module
      -----  --------------------------------   ------------------------
           0000DF09  Fboard$FREQ2$0$0                   board
           0000DF09  Fdma$FREQ2$0$0                     dma
           0000DF09  Fgreen_led$FREQ2$0$0               green_led
           0000DF09  Fradio_mac$FREQ2$0$0               radio_mac
           0000DF09  Fradio_queue$FREQ2$0$0             radio_queue
           0000DF09  Fradio_registers$FREQ2$0$0         radio_registers
           0000DF09  Fradio_send_test_with_usb_com$FR   radio_send_test_with_usb_com
           0000DF09  Frandom$FREQ2$0$0                  random
           0000DF09  Frandom_from_sernum$FREQ2$0$0      random_from_sernum
           0000DF09  Ftime$FREQ2$0$0                    time
           0000DF09  Fusb$FREQ2$0$0                     usb
           0000DF09  Fusb_cdc_acm$FREQ2$0$0             usb_cdc_acm
           0000DF0A  Fboard$FREQ1$0$0                   board
           0000DF0A  Fdma$FREQ1$0$0                     dma
           0000DF0A  Fgreen_led$FREQ1$0$0               green_led
           0000DF0A  Fradio_mac$FREQ1$0$0               radio_mac
           0000DF0A  Fradio_queue$FREQ1$0$0             radio_queue
           0000DF0A  Fradio_registers$FREQ1$0$0         radio_registers
           0000DF0A  Fradio_send_test_with_usb_com$FR   radio_send_test_with_usb_com
           0000DF0A  Frandom$FREQ1$0$0                  random
           0000DF0A  Frandom_from_sernum$FREQ1$0$0      random_from_sernum
           0000DF0A  Ftime$FREQ1$0$0                    time
           0000DF0A  Fusb$FREQ1$0$0                     usb
           0000DF0A  Fusb_cdc_acm$FREQ1$0$0             usb_cdc_acm
           0000DF0B  Fboard$FREQ0$0$0                   board
           0000DF0B  Fdma$FREQ0$0$0                     dma
           0000DF0B  Fgreen_led$FREQ0$0$0               green_led
           0000DF0B  Fradio_mac$FREQ0$0$0               radio_mac
           0000DF0B  Fradio_queue$FREQ0$0$0             radio_queue
           0000DF0B  Fradio_registers$FREQ0$0$0         radio_registers
           0000DF0B  Fradio_send_test_with_usb_com$FR   radio_send_test_with_usb_com
           0000DF0B  Frandom$FREQ0$0$0                  random
           0000DF0B  Frandom_from_sernum$FREQ0$0$0      random_from_sernum
           0000DF0B  Ftime$FREQ0$0$0                    time
           0000DF0B  Fusb$FREQ0$0$0                     usb
           0000DF0B  Fusb_cdc_acm$FREQ0$0$0             usb_cdc_acm
           0000DF0C  Fboard$MDMCFG4$0$0                 board
           0000DF0C  Fdma$MDMCFG4$0$0                   dma
           0000DF0C  Fgreen_led$MDMCFG4$0$0             green_led
           0000DF0C  Fradio_mac$MDMCFG4$0$0             radio_mac
           0000DF0C  Fradio_queue$MDMCFG4$0$0           radio_queue
           0000DF0C  Fradio_registers$MDMCFG4$0$0       radio_registers
           0000DF0C  Fradio_send_test_with_usb_com$MD   radio_send_test_with_usb_com
           0000DF0C  Frandom$MDMCFG4$0$0                random
           0000DF0C  Frandom_from_sernum$MDMCFG4$0$0    random_from_sernum
           0000DF0C  Ftime$MDMCFG4$0$0                  time
           0000DF0C  Fusb$MDMCFG4$0$0                   usb
           0000DF0C  Fusb_cdc_acm$MDMCFG4$0$0           usb_cdc_acm
           0000DF0D  Fboard$MDMCFG3$0$0                 board
           0000DF0D  Fdma$MDMCFG3$0$0                   dma
           0000DF0D  Fgreen_led$MDMCFG3$0$0             green_led
ASxxxx Linker V02.00 + NoICE + sdld,  page 67.
Hexadecimal  [32-Bits]

Area                                    Addr        Size        Decimal Bytes (Attributes)
--------------------------------        ----        ----        ------- ----- ------------
.	.ABS.                             00000000    00000000 =           0. bytes (ABS,CON)

      Value  Global                              Global Defined In Module
      -----  --------------------------------   ------------------------
           0000DF0D  Fradio_mac$MDMCFG3$0$0             radio_mac
           0000DF0D  Fradio_queue$MDMCFG3$0$0           radio_queue
           0000DF0D  Fradio_registers$MDMCFG3$0$0       radio_registers
           0000DF0D  Fradio_send_test_with_usb_com$MD   radio_send_test_with_usb_com
           0000DF0D  Frandom$MDMCFG3$0$0                random
           0000DF0D  Frandom_from_sernum$MDMCFG3$0$0    random_from_sernum
           0000DF0D  Ftime$MDMCFG3$0$0                  time
           0000DF0D  Fusb$MDMCFG3$0$0                   usb
           0000DF0D  Fusb_cdc_acm$MDMCFG3$0$0           usb_cdc_acm
           0000DF0E  Fboard$MDMCFG2$0$0                 board
           0000DF0E  Fdma$MDMCFG2$0$0                   dma
           0000DF0E  Fgreen_led$MDMCFG2$0$0             green_led
           0000DF0E  Fradio_mac$MDMCFG2$0$0             radio_mac
           0000DF0E  Fradio_queue$MDMCFG2$0$0           radio_queue
           0000DF0E  Fradio_registers$MDMCFG2$0$0       radio_registers
           0000DF0E  Fradio_send_test_with_usb_com$MD   radio_send_test_with_usb_com
           0000DF0E  Frandom$MDMCFG2$0$0                random
           0000DF0E  Frandom_from_sernum$MDMCFG2$0$0    random_from_sernum
           0000DF0E  Ftime$MDMCFG2$0$0                  time
           0000DF0E  Fusb$MDMCFG2$0$0                   usb
           0000DF0E  Fusb_cdc_acm$MDMCFG2$0$0           usb_cdc_acm
           0000DF0F  Fboard$MDMCFG1$0$0                 board
           0000DF0F  Fdma$MDMCFG1$0$0                   dma
           0000DF0F  Fgreen_led$MDMCFG1$0$0             green_led
           0000DF0F  Fradio_mac$MDMCFG1$0$0             radio_mac
           0000DF0F  Fradio_queue$MDMCFG1$0$0           radio_queue
           0000DF0F  Fradio_registers$MDMCFG1$0$0       radio_registers
           0000DF0F  Fradio_send_test_with_usb_com$MD   radio_send_test_with_usb_com
           0000DF0F  Frandom$MDMCFG1$0$0                random
           0000DF0F  Frandom_from_sernum$MDMCFG1$0$0    random_from_sernum
           0000DF0F  Ftime$MDMCFG1$0$0                  time
           0000DF0F  Fusb$MDMCFG1$0$0                   usb
           0000DF0F  Fusb_cdc_acm$MDMCFG1$0$0           usb_cdc_acm
           0000DF10  Fboard$MDMCFG0$0$0                 board
           0000DF10  Fdma$MDMCFG0$0$0                   dma
           0000DF10  Fgreen_led$MDMCFG0$0$0             green_led
           0000DF10  Fradio_mac$MDMCFG0$0$0             radio_mac
           0000DF10  Fradio_queue$MDMCFG0$0$0           radio_queue
           0000DF10  Fradio_registers$MDMCFG0$0$0       radio_registers
           0000DF10  Fradio_send_test_with_usb_com$MD   radio_send_test_with_usb_com
           0000DF10  Frandom$MDMCFG0$0$0                random
           0000DF10  Frandom_from_sernum$MDMCFG0$0$0    random_from_sernum
           0000DF10  Ftime$MDMCFG0$0$0                  time
           0000DF10  Fusb$MDMCFG0$0$0                   usb
           0000DF10  Fusb_cdc_acm$MDMCFG0$0$0           usb_cdc_acm
           0000DF11  Fboard$DEVIATN$0$0                 board
           0000DF11  Fdma$DEVIATN$0$0                   dma
           0000DF11  Fgreen_led$DEVIATN$0$0             green_led
           0000DF11  Fradio_mac$DEVIATN$0$0             radio_mac
           0000DF11  Fradio_queue$DEVIATN$0$0           radio_queue
           0000DF11  Fradio_registers$DEVIATN$0$0       radio_registers
ASxxxx Linker V02.00 + NoICE + sdld,  page 68.
Hexadecimal  [32-Bits]

Area                                    Addr        Size        Decimal Bytes (Attributes)
--------------------------------        ----        ----        ------- ----- ------------
.	.ABS.                             00000000    00000000 =           0. bytes (ABS,CON)

      Value  Global                              Global Defined In Module
      -----  --------------------------------   ------------------------
           0000DF11  Fradio_send_test_with_usb_com$DE   radio_send_test_with_usb_com
           0000DF11  Frandom$DEVIATN$0$0                random
           0000DF11  Frandom_from_sernum$DEVIATN$0$0    random_from_sernum
           0000DF11  Ftime$DEVIATN$0$0                  time
           0000DF11  Fusb$DEVIATN$0$0                   usb
           0000DF11  Fusb_cdc_acm$DEVIATN$0$0           usb_cdc_acm
           0000DF12  Fboard$MCSM2$0$0                   board
           0000DF12  Fdma$MCSM2$0$0                     dma
           0000DF12  Fgreen_led$MCSM2$0$0               green_led
           0000DF12  Fradio_mac$MCSM2$0$0               radio_mac
           0000DF12  Fradio_queue$MCSM2$0$0             radio_queue
           0000DF12  Fradio_registers$MCSM2$0$0         radio_registers
           0000DF12  Fradio_send_test_with_usb_com$MC   radio_send_test_with_usb_com
           0000DF12  Frandom$MCSM2$0$0                  random
           0000DF12  Frandom_from_sernum$MCSM2$0$0      random_from_sernum
           0000DF12  Ftime$MCSM2$0$0                    time
           0000DF12  Fusb$MCSM2$0$0                     usb
           0000DF12  Fusb_cdc_acm$MCSM2$0$0             usb_cdc_acm
           0000DF13  Fboard$MCSM1$0$0                   board
           0000DF13  Fdma$MCSM1$0$0                     dma
           0000DF13  Fgreen_led$MCSM1$0$0               green_led
           0000DF13  Fradio_mac$MCSM1$0$0               radio_mac
           0000DF13  Fradio_queue$MCSM1$0$0             radio_queue
           0000DF13  Fradio_registers$MCSM1$0$0         radio_registers
           0000DF13  Fradio_send_test_with_usb_com$MC   radio_send_test_with_usb_com
           0000DF13  Frandom$MCSM1$0$0                  random
           0000DF13  Frandom_from_sernum$MCSM1$0$0      random_from_sernum
           0000DF13  Ftime$MCSM1$0$0                    time
           0000DF13  Fusb$MCSM1$0$0                     usb
           0000DF13  Fusb_cdc_acm$MCSM1$0$0             usb_cdc_acm
           0000DF14  Fboard$MCSM0$0$0                   board
           0000DF14  Fdma$MCSM0$0$0                     dma
           0000DF14  Fgreen_led$MCSM0$0$0               green_led
           0000DF14  Fradio_mac$MCSM0$0$0               radio_mac
           0000DF14  Fradio_queue$MCSM0$0$0             radio_queue
           0000DF14  Fradio_registers$MCSM0$0$0         radio_registers
           0000DF14  Fradio_send_test_with_usb_com$MC   radio_send_test_with_usb_com
           0000DF14  Frandom$MCSM0$0$0                  random
           0000DF14  Frandom_from_sernum$MCSM0$0$0      random_from_sernum
           0000DF14  Ftime$MCSM0$0$0                    time
           0000DF14  Fusb$MCSM0$0$0                     usb
           0000DF14  Fusb_cdc_acm$MCSM0$0$0             usb_cdc_acm
           0000DF15  Fboard$FOCCFG$0$0                  board
           0000DF15  Fdma$FOCCFG$0$0                    dma
           0000DF15  Fgreen_led$FOCCFG$0$0              green_led
           0000DF15  Fradio_mac$FOCCFG$0$0              radio_mac
           0000DF15  Fradio_queue$FOCCFG$0$0            radio_queue
           0000DF15  Fradio_registers$FOCCFG$0$0        radio_registers
           0000DF15  Fradio_send_test_with_usb_com$FO   radio_send_test_with_usb_com
           0000DF15  Frandom$FOCCFG$0$0                 random
           0000DF15  Frandom_from_sernum$FOCCFG$0$0     random_from_sernum
ASxxxx Linker V02.00 + NoICE + sdld,  page 69.
Hexadecimal  [32-Bits]

Area                                    Addr        Size        Decimal Bytes (Attributes)
--------------------------------        ----        ----        ------- ----- ------------
.	.ABS.                             00000000    00000000 =           0. bytes (ABS,CON)

      Value  Global                              Global Defined In Module
      -----  --------------------------------   ------------------------
           0000DF15  Ftime$FOCCFG$0$0                   time
           0000DF15  Fusb$FOCCFG$0$0                    usb
           0000DF15  Fusb_cdc_acm$FOCCFG$0$0            usb_cdc_acm
           0000DF16  Fboard$BSCFG$0$0                   board
           0000DF16  Fdma$BSCFG$0$0                     dma
           0000DF16  Fgreen_led$BSCFG$0$0               green_led
           0000DF16  Fradio_mac$BSCFG$0$0               radio_mac
           0000DF16  Fradio_queue$BSCFG$0$0             radio_queue
           0000DF16  Fradio_registers$BSCFG$0$0         radio_registers
           0000DF16  Fradio_send_test_with_usb_com$BS   radio_send_test_with_usb_com
           0000DF16  Frandom$BSCFG$0$0                  random
           0000DF16  Frandom_from_sernum$BSCFG$0$0      random_from_sernum
           0000DF16  Ftime$BSCFG$0$0                    time
           0000DF16  Fusb$BSCFG$0$0                     usb
           0000DF16  Fusb_cdc_acm$BSCFG$0$0             usb_cdc_acm
           0000DF17  Fboard$AGCCTRL2$0$0                board
           0000DF17  Fdma$AGCCTRL2$0$0                  dma
           0000DF17  Fgreen_led$AGCCTRL2$0$0            green_led
           0000DF17  Fradio_mac$AGCCTRL2$0$0            radio_mac
           0000DF17  Fradio_queue$AGCCTRL2$0$0          radio_queue
           0000DF17  Fradio_registers$AGCCTRL2$0$0      radio_registers
           0000DF17  Fradio_send_test_with_usb_com$AG   radio_send_test_with_usb_com
           0000DF17  Frandom$AGCCTRL2$0$0               random
           0000DF17  Frandom_from_sernum$AGCCTRL2$0$0   random_from_sernum
           0000DF17  Ftime$AGCCTRL2$0$0                 time
           0000DF17  Fusb$AGCCTRL2$0$0                  usb
           0000DF17  Fusb_cdc_acm$AGCCTRL2$0$0          usb_cdc_acm
           0000DF18  Fboard$AGCCTRL1$0$0                board
           0000DF18  Fdma$AGCCTRL1$0$0                  dma
           0000DF18  Fgreen_led$AGCCTRL1$0$0            green_led
           0000DF18  Fradio_mac$AGCCTRL1$0$0            radio_mac
           0000DF18  Fradio_queue$AGCCTRL1$0$0          radio_queue
           0000DF18  Fradio_registers$AGCCTRL1$0$0      radio_registers
           0000DF18  Fradio_send_test_with_usb_com$AG   radio_send_test_with_usb_com
           0000DF18  Frandom$AGCCTRL1$0$0               random
           0000DF18  Frandom_from_sernum$AGCCTRL1$0$0   random_from_sernum
           0000DF18  Ftime$AGCCTRL1$0$0                 time
           0000DF18  Fusb$AGCCTRL1$0$0                  usb
           0000DF18  Fusb_cdc_acm$AGCCTRL1$0$0          usb_cdc_acm
           0000DF19  Fboard$AGCCTRL0$0$0                board
           0000DF19  Fdma$AGCCTRL0$0$0                  dma
           0000DF19  Fgreen_led$AGCCTRL0$0$0            green_led
           0000DF19  Fradio_mac$AGCCTRL0$0$0            radio_mac
           0000DF19  Fradio_queue$AGCCTRL0$0$0          radio_queue
           0000DF19  Fradio_registers$AGCCTRL0$0$0      radio_registers
           0000DF19  Fradio_send_test_with_usb_com$AG   radio_send_test_with_usb_com
           0000DF19  Frandom$AGCCTRL0$0$0               random
           0000DF19  Frandom_from_sernum$AGCCTRL0$0$0   random_from_sernum
           0000DF19  Ftime$AGCCTRL0$0$0                 time
           0000DF19  Fusb$AGCCTRL0$0$0                  usb
           0000DF19  Fusb_cdc_acm$AGCCTRL0$0$0          usb_cdc_acm
ASxxxx Linker V02.00 + NoICE + sdld,  page 70.
Hexadecimal  [32-Bits]

Area                                    Addr        Size        Decimal Bytes (Attributes)
--------------------------------        ----        ----        ------- ----- ------------
.	.ABS.                             00000000    00000000 =           0. bytes (ABS,CON)

      Value  Global                              Global Defined In Module
      -----  --------------------------------   ------------------------
           0000DF1A  Fboard$FREND1$0$0                  board
           0000DF1A  Fdma$FREND1$0$0                    dma
           0000DF1A  Fgreen_led$FREND1$0$0              green_led
           0000DF1A  Fradio_mac$FREND1$0$0              radio_mac
           0000DF1A  Fradio_queue$FREND1$0$0            radio_queue
           0000DF1A  Fradio_registers$FREND1$0$0        radio_registers
           0000DF1A  Fradio_send_test_with_usb_com$FR   radio_send_test_with_usb_com
           0000DF1A  Frandom$FREND1$0$0                 random
           0000DF1A  Frandom_from_sernum$FREND1$0$0     random_from_sernum
           0000DF1A  Ftime$FREND1$0$0                   time
           0000DF1A  Fusb$FREND1$0$0                    usb
           0000DF1A  Fusb_cdc_acm$FREND1$0$0            usb_cdc_acm
           0000DF1B  Fboard$FREND0$0$0                  board
           0000DF1B  Fdma$FREND0$0$0                    dma
           0000DF1B  Fgreen_led$FREND0$0$0              green_led
           0000DF1B  Fradio_mac$FREND0$0$0              radio_mac
           0000DF1B  Fradio_queue$FREND0$0$0            radio_queue
           0000DF1B  Fradio_registers$FREND0$0$0        radio_registers
           0000DF1B  Fradio_send_test_with_usb_com$FR   radio_send_test_with_usb_com
           0000DF1B  Frandom$FREND0$0$0                 random
           0000DF1B  Frandom_from_sernum$FREND0$0$0     random_from_sernum
           0000DF1B  Ftime$FREND0$0$0                   time
           0000DF1B  Fusb$FREND0$0$0                    usb
           0000DF1B  Fusb_cdc_acm$FREND0$0$0            usb_cdc_acm
           0000DF1C  Fboard$FSCAL3$0$0                  board
           0000DF1C  Fdma$FSCAL3$0$0                    dma
           0000DF1C  Fgreen_led$FSCAL3$0$0              green_led
           0000DF1C  Fradio_mac$FSCAL3$0$0              radio_mac
           0000DF1C  Fradio_queue$FSCAL3$0$0            radio_queue
           0000DF1C  Fradio_registers$FSCAL3$0$0        radio_registers
           0000DF1C  Fradio_send_test_with_usb_com$FS   radio_send_test_with_usb_com
           0000DF1C  Frandom$FSCAL3$0$0                 random
           0000DF1C  Frandom_from_sernum$FSCAL3$0$0     random_from_sernum
           0000DF1C  Ftime$FSCAL3$0$0                   time
           0000DF1C  Fusb$FSCAL3$0$0                    usb
           0000DF1C  Fusb_cdc_acm$FSCAL3$0$0            usb_cdc_acm
           0000DF1D  Fboard$FSCAL2$0$0                  board
           0000DF1D  Fdma$FSCAL2$0$0                    dma
           0000DF1D  Fgreen_led$FSCAL2$0$0              green_led
           0000DF1D  Fradio_mac$FSCAL2$0$0              radio_mac
           0000DF1D  Fradio_queue$FSCAL2$0$0            radio_queue
           0000DF1D  Fradio_registers$FSCAL2$0$0        radio_registers
           0000DF1D  Fradio_send_test_with_usb_com$FS   radio_send_test_with_usb_com
           0000DF1D  Frandom$FSCAL2$0$0                 random
           0000DF1D  Frandom_from_sernum$FSCAL2$0$0     random_from_sernum
           0000DF1D  Ftime$FSCAL2$0$0                   time
           0000DF1D  Fusb$FSCAL2$0$0                    usb
           0000DF1D  Fusb_cdc_acm$FSCAL2$0$0            usb_cdc_acm
           0000DF1E  Fboard$FSCAL1$0$0                  board
           0000DF1E  Fdma$FSCAL1$0$0                    dma
           0000DF1E  Fgreen_led$FSCAL1$0$0              green_led
ASxxxx Linker V02.00 + NoICE + sdld,  page 71.
Hexadecimal  [32-Bits]

Area                                    Addr        Size        Decimal Bytes (Attributes)
--------------------------------        ----        ----        ------- ----- ------------
.	.ABS.                             00000000    00000000 =           0. bytes (ABS,CON)

      Value  Global                              Global Defined In Module
      -----  --------------------------------   ------------------------
           0000DF1E  Fradio_mac$FSCAL1$0$0              radio_mac
           0000DF1E  Fradio_queue$FSCAL1$0$0            radio_queue
           0000DF1E  Fradio_registers$FSCAL1$0$0        radio_registers
           0000DF1E  Fradio_send_test_with_usb_com$FS   radio_send_test_with_usb_com
           0000DF1E  Frandom$FSCAL1$0$0                 random
           0000DF1E  Frandom_from_sernum$FSCAL1$0$0     random_from_sernum
           0000DF1E  Ftime$FSCAL1$0$0                   time
           0000DF1E  Fusb$FSCAL1$0$0                    usb
           0000DF1E  Fusb_cdc_acm$FSCAL1$0$0            usb_cdc_acm
           0000DF1F  Fboard$FSCAL0$0$0                  board
           0000DF1F  Fdma$FSCAL0$0$0                    dma
           0000DF1F  Fgreen_led$FSCAL0$0$0              green_led
           0000DF1F  Fradio_mac$FSCAL0$0$0              radio_mac
           0000DF1F  Fradio_queue$FSCAL0$0$0            radio_queue
           0000DF1F  Fradio_registers$FSCAL0$0$0        radio_registers
           0000DF1F  Fradio_send_test_with_usb_com$FS   radio_send_test_with_usb_com
           0000DF1F  Frandom$FSCAL0$0$0                 random
           0000DF1F  Frandom_from_sernum$FSCAL0$0$0     random_from_sernum
           0000DF1F  Ftime$FSCAL0$0$0                   time
           0000DF1F  Fusb$FSCAL0$0$0                    usb
           0000DF1F  Fusb_cdc_acm$FSCAL0$0$0            usb_cdc_acm
           0000DF23  Fboard$TEST2$0$0                   board
           0000DF23  Fdma$TEST2$0$0                     dma
           0000DF23  Fgreen_led$TEST2$0$0               green_led
           0000DF23  Fradio_mac$TEST2$0$0               radio_mac
           0000DF23  Fradio_queue$TEST2$0$0             radio_queue
           0000DF23  Fradio_registers$TEST2$0$0         radio_registers
           0000DF23  Fradio_send_test_with_usb_com$TE   radio_send_test_with_usb_com
           0000DF23  Frandom$TEST2$0$0                  random
           0000DF23  Frandom_from_sernum$TEST2$0$0      random_from_sernum
           0000DF23  Ftime$TEST2$0$0                    time
           0000DF23  Fusb$TEST2$0$0                     usb
           0000DF23  Fusb_cdc_acm$TEST2$0$0             usb_cdc_acm
           0000DF24  Fboard$TEST1$0$0                   board
           0000DF24  Fdma$TEST1$0$0                     dma
           0000DF24  Fgreen_led$TEST1$0$0               green_led
           0000DF24  Fradio_mac$TEST1$0$0               radio_mac
           0000DF24  Fradio_queue$TEST1$0$0             radio_queue
           0000DF24  Fradio_registers$TEST1$0$0         radio_registers
           0000DF24  Fradio_send_test_with_usb_com$TE   radio_send_test_with_usb_com
           0000DF24  Frandom$TEST1$0$0                  random
           0000DF24  Frandom_from_sernum$TEST1$0$0      random_from_sernum
           0000DF24  Ftime$TEST1$0$0                    time
           0000DF24  Fusb$TEST1$0$0                     usb
           0000DF24  Fusb_cdc_acm$TEST1$0$0             usb_cdc_acm
           0000DF25  Fboard$TEST0$0$0                   board
           0000DF25  Fdma$TEST0$0$0                     dma
           0000DF25  Fgreen_led$TEST0$0$0               green_led
           0000DF25  Fradio_mac$TEST0$0$0               radio_mac
           0000DF25  Fradio_queue$TEST0$0$0             radio_queue
           0000DF25  Fradio_registers$TEST0$0$0         radio_registers
ASxxxx Linker V02.00 + NoICE + sdld,  page 72.
Hexadecimal  [32-Bits]

Area                                    Addr        Size        Decimal Bytes (Attributes)
--------------------------------        ----        ----        ------- ----- ------------
.	.ABS.                             00000000    00000000 =           0. bytes (ABS,CON)

      Value  Global                              Global Defined In Module
      -----  --------------------------------   ------------------------
           0000DF25  Fradio_send_test_with_usb_com$TE   radio_send_test_with_usb_com
           0000DF25  Frandom$TEST0$0$0                  random
           0000DF25  Frandom_from_sernum$TEST0$0$0      random_from_sernum
           0000DF25  Ftime$TEST0$0$0                    time
           0000DF25  Fusb$TEST0$0$0                     usb
           0000DF25  Fusb_cdc_acm$TEST0$0$0             usb_cdc_acm
           0000DF2E  Fboard$PA_TABLE0$0$0               board
           0000DF2E  Fdma$PA_TABLE0$0$0                 dma
           0000DF2E  Fgreen_led$PA_TABLE0$0$0           green_led
           0000DF2E  Fradio_mac$PA_TABLE0$0$0           radio_mac
           0000DF2E  Fradio_queue$PA_TABLE0$0$0         radio_queue
           0000DF2E  Fradio_registers$PA_TABLE0$0$0     radio_registers
           0000DF2E  Fradio_send_test_with_usb_com$PA   radio_send_test_with_usb_com
           0000DF2E  Frandom$PA_TABLE0$0$0              random
           0000DF2E  Frandom_from_sernum$PA_TABLE0$0$   random_from_sernum
           0000DF2E  Ftime$PA_TABLE0$0$0                time
           0000DF2E  Fusb$PA_TABLE0$0$0                 usb
           0000DF2E  Fusb_cdc_acm$PA_TABLE0$0$0         usb_cdc_acm
           0000DF2F  Fboard$IOCFG2$0$0                  board
           0000DF2F  Fdma$IOCFG2$0$0                    dma
           0000DF2F  Fgreen_led$IOCFG2$0$0              green_led
           0000DF2F  Fradio_mac$IOCFG2$0$0              radio_mac
           0000DF2F  Fradio_queue$IOCFG2$0$0            radio_queue
           0000DF2F  Fradio_registers$IOCFG2$0$0        radio_registers
           0000DF2F  Fradio_send_test_with_usb_com$IO   radio_send_test_with_usb_com
           0000DF2F  Frandom$IOCFG2$0$0                 random
           0000DF2F  Frandom_from_sernum$IOCFG2$0$0     random_from_sernum
           0000DF2F  Ftime$IOCFG2$0$0                   time
           0000DF2F  Fusb$IOCFG2$0$0                    usb
           0000DF2F  Fusb_cdc_acm$IOCFG2$0$0            usb_cdc_acm
           0000DF30  Fboard$IOCFG1$0$0                  board
           0000DF30  Fdma$IOCFG1$0$0                    dma
           0000DF30  Fgreen_led$IOCFG1$0$0              green_led
           0000DF30  Fradio_mac$IOCFG1$0$0              radio_mac
           0000DF30  Fradio_queue$IOCFG1$0$0            radio_queue
           0000DF30  Fradio_registers$IOCFG1$0$0        radio_registers
           0000DF30  Fradio_send_test_with_usb_com$IO   radio_send_test_with_usb_com
           0000DF30  Frandom$IOCFG1$0$0                 random
           0000DF30  Frandom_from_sernum$IOCFG1$0$0     random_from_sernum
           0000DF30  Ftime$IOCFG1$0$0                   time
           0000DF30  Fusb$IOCFG1$0$0                    usb
           0000DF30  Fusb_cdc_acm$IOCFG1$0$0            usb_cdc_acm
           0000DF31  Fboard$IOCFG0$0$0                  board
           0000DF31  Fdma$IOCFG0$0$0                    dma
           0000DF31  Fgreen_led$IOCFG0$0$0              green_led
           0000DF31  Fradio_mac$IOCFG0$0$0              radio_mac
           0000DF31  Fradio_queue$IOCFG0$0$0            radio_queue
           0000DF31  Fradio_registers$IOCFG0$0$0        radio_registers
           0000DF31  Fradio_send_test_with_usb_com$IO   radio_send_test_with_usb_com
           0000DF31  Frandom$IOCFG0$0$0                 random
           0000DF31  Frandom_from_sernum$IOCFG0$0$0     random_from_sernum
ASxxxx Linker V02.00 + NoICE + sdld,  page 73.
Hexadecimal  [32-Bits]

Area                                    Addr        Size        Decimal Bytes (Attributes)
--------------------------------        ----        ----        ------- ----- ------------
.	.ABS.                             00000000    00000000 =           0. bytes (ABS,CON)

      Value  Global                              Global Defined In Module
      -----  --------------------------------   ------------------------
           0000DF31  Ftime$IOCFG0$0$0                   time
           0000DF31  Fusb$IOCFG0$0$0                    usb
           0000DF31  Fusb_cdc_acm$IOCFG0$0$0            usb_cdc_acm
           0000DF36  Fboard$PARTNUM$0$0                 board
           0000DF36  Fdma$PARTNUM$0$0                   dma
           0000DF36  Fgreen_led$PARTNUM$0$0             green_led
           0000DF36  Fradio_mac$PARTNUM$0$0             radio_mac
           0000DF36  Fradio_queue$PARTNUM$0$0           radio_queue
           0000DF36  Fradio_registers$PARTNUM$0$0       radio_registers
           0000DF36  Fradio_send_test_with_usb_com$PA   radio_send_test_with_usb_com
           0000DF36  Frandom$PARTNUM$0$0                random
           0000DF36  Frandom_from_sernum$PARTNUM$0$0    random_from_sernum
           0000DF36  Ftime$PARTNUM$0$0                  time
           0000DF36  Fusb$PARTNUM$0$0                   usb
           0000DF36  Fusb_cdc_acm$PARTNUM$0$0           usb_cdc_acm
           0000DF37  Fboard$VERSION$0$0                 board
           0000DF37  Fdma$VERSION$0$0                   dma
           0000DF37  Fgreen_led$VERSION$0$0             green_led
           0000DF37  Fradio_mac$VERSION$0$0             radio_mac
           0000DF37  Fradio_queue$VERSION$0$0           radio_queue
           0000DF37  Fradio_registers$VERSION$0$0       radio_registers
           0000DF37  Fradio_send_test_with_usb_com$VE   radio_send_test_with_usb_com
           0000DF37  Frandom$VERSION$0$0                random
           0000DF37  Frandom_from_sernum$VERSION$0$0    random_from_sernum
           0000DF37  Ftime$VERSION$0$0                  time
           0000DF37  Fusb$VERSION$0$0                   usb
           0000DF37  Fusb_cdc_acm$VERSION$0$0           usb_cdc_acm
           0000DF38  Fboard$FREQEST$0$0                 board
           0000DF38  Fdma$FREQEST$0$0                   dma
           0000DF38  Fgreen_led$FREQEST$0$0             green_led
           0000DF38  Fradio_mac$FREQEST$0$0             radio_mac
           0000DF38  Fradio_queue$FREQEST$0$0           radio_queue
           0000DF38  Fradio_registers$FREQEST$0$0       radio_registers
           0000DF38  Fradio_send_test_with_usb_com$FR   radio_send_test_with_usb_com
           0000DF38  Frandom$FREQEST$0$0                random
           0000DF38  Frandom_from_sernum$FREQEST$0$0    random_from_sernum
           0000DF38  Ftime$FREQEST$0$0                  time
           0000DF38  Fusb$FREQEST$0$0                   usb
           0000DF38  Fusb_cdc_acm$FREQEST$0$0           usb_cdc_acm
           0000DF39  Fboard$LQI$0$0                     board
           0000DF39  Fdma$LQI$0$0                       dma
           0000DF39  Fgreen_led$LQI$0$0                 green_led
           0000DF39  Fradio_mac$LQI$0$0                 radio_mac
           0000DF39  Fradio_queue$LQI$0$0               radio_queue
           0000DF39  Fradio_registers$LQI$0$0           radio_registers
           0000DF39  Fradio_send_test_with_usb_com$LQ   radio_send_test_with_usb_com
           0000DF39  Frandom$LQI$0$0                    random
           0000DF39  Frandom_from_sernum$LQI$0$0        random_from_sernum
           0000DF39  Ftime$LQI$0$0                      time
           0000DF39  Fusb$LQI$0$0                       usb
           0000DF39  Fusb_cdc_acm$LQI$0$0               usb_cdc_acm
ASxxxx Linker V02.00 + NoICE + sdld,  page 74.
Hexadecimal  [32-Bits]

Area                                    Addr        Size        Decimal Bytes (Attributes)
--------------------------------        ----        ----        ------- ----- ------------
.	.ABS.                             00000000    00000000 =           0. bytes (ABS,CON)

      Value  Global                              Global Defined In Module
      -----  --------------------------------   ------------------------
           0000DF3A  Fboard$RSSI$0$0                    board
           0000DF3A  Fdma$RSSI$0$0                      dma
           0000DF3A  Fgreen_led$RSSI$0$0                green_led
           0000DF3A  Fradio_mac$RSSI$0$0                radio_mac
           0000DF3A  Fradio_queue$RSSI$0$0              radio_queue
           0000DF3A  Fradio_registers$RSSI$0$0          radio_registers
           0000DF3A  Fradio_send_test_with_usb_com$RS   radio_send_test_with_usb_com
           0000DF3A  Frandom$RSSI$0$0                   random
           0000DF3A  Frandom_from_sernum$RSSI$0$0       random_from_sernum
           0000DF3A  Ftime$RSSI$0$0                     time
           0000DF3A  Fusb$RSSI$0$0                      usb
           0000DF3A  Fusb_cdc_acm$RSSI$0$0              usb_cdc_acm
           0000DF3B  Fboard$MARCSTATE$0$0               board
           0000DF3B  Fdma$MARCSTATE$0$0                 dma
           0000DF3B  Fgreen_led$MARCSTATE$0$0           green_led
           0000DF3B  Fradio_mac$MARCSTATE$0$0           radio_mac
           0000DF3B  Fradio_queue$MARCSTATE$0$0         radio_queue
           0000DF3B  Fradio_registers$MARCSTATE$0$0     radio_registers
           0000DF3B  Fradio_send_test_with_usb_com$MA   radio_send_test_with_usb_com
           0000DF3B  Frandom$MARCSTATE$0$0              random
           0000DF3B  Frandom_from_sernum$MARCSTATE$0$   random_from_sernum
           0000DF3B  Ftime$MARCSTATE$0$0                time
           0000DF3B  Fusb$MARCSTATE$0$0                 usb
           0000DF3B  Fusb_cdc_acm$MARCSTATE$0$0         usb_cdc_acm
           0000DF3C  Fboard$PKTSTATUS$0$0               board
           0000DF3C  Fdma$PKTSTATUS$0$0                 dma
           0000DF3C  Fgreen_led$PKTSTATUS$0$0           green_led
           0000DF3C  Fradio_mac$PKTSTATUS$0$0           radio_mac
           0000DF3C  Fradio_queue$PKTSTATUS$0$0         radio_queue
           0000DF3C  Fradio_registers$PKTSTATUS$0$0     radio_registers
           0000DF3C  Fradio_send_test_with_usb_com$PK   radio_send_test_with_usb_com
           0000DF3C  Frandom$PKTSTATUS$0$0              random
           0000DF3C  Frandom_from_sernum$PKTSTATUS$0$   random_from_sernum
           0000DF3C  Ftime$PKTSTATUS$0$0                time
           0000DF3C  Fusb$PKTSTATUS$0$0                 usb
           0000DF3C  Fusb_cdc_acm$PKTSTATUS$0$0         usb_cdc_acm
           0000DF3D  Fboard$VCO_VC_DAC$0$0              board
           0000DF3D  Fdma$VCO_VC_DAC$0$0                dma
           0000DF3D  Fgreen_led$VCO_VC_DAC$0$0          green_led
           0000DF3D  Fradio_mac$VCO_VC_DAC$0$0          radio_mac
           0000DF3D  Fradio_queue$VCO_VC_DAC$0$0        radio_queue
           0000DF3D  Fradio_registers$VCO_VC_DAC$0$0    radio_registers
           0000DF3D  Fradio_send_test_with_usb_com$VC   radio_send_test_with_usb_com
           0000DF3D  Frandom$VCO_VC_DAC$0$0             random
           0000DF3D  Frandom_from_sernum$VCO_VC_DAC$0   random_from_sernum
           0000DF3D  Ftime$VCO_VC_DAC$0$0               time
           0000DF3D  Fusb$VCO_VC_DAC$0$0                usb
           0000DF3D  Fusb_cdc_acm$VCO_VC_DAC$0$0        usb_cdc_acm
           0000DF40  Fboard$I2SCFG0$0$0                 board
           0000DF40  Fdma$I2SCFG0$0$0                   dma
           0000DF40  Fgreen_led$I2SCFG0$0$0             green_led
ASxxxx Linker V02.00 + NoICE + sdld,  page 75.
Hexadecimal  [32-Bits]

Area                                    Addr        Size        Decimal Bytes (Attributes)
--------------------------------        ----        ----        ------- ----- ------------
.	.ABS.                             00000000    00000000 =           0. bytes (ABS,CON)

      Value  Global                              Global Defined In Module
      -----  --------------------------------   ------------------------
           0000DF40  Fradio_mac$I2SCFG0$0$0             radio_mac
           0000DF40  Fradio_queue$I2SCFG0$0$0           radio_queue
           0000DF40  Fradio_registers$I2SCFG0$0$0       radio_registers
           0000DF40  Fradio_send_test_with_usb_com$I2   radio_send_test_with_usb_com
           0000DF40  Frandom$I2SCFG0$0$0                random
           0000DF40  Frandom_from_sernum$I2SCFG0$0$0    random_from_sernum
           0000DF40  Ftime$I2SCFG0$0$0                  time
           0000DF40  Fusb$I2SCFG0$0$0                   usb
           0000DF40  Fusb_cdc_acm$I2SCFG0$0$0           usb_cdc_acm
           0000DF41  Fboard$I2SCFG1$0$0                 board
           0000DF41  Fdma$I2SCFG1$0$0                   dma
           0000DF41  Fgreen_led$I2SCFG1$0$0             green_led
           0000DF41  Fradio_mac$I2SCFG1$0$0             radio_mac
           0000DF41  Fradio_queue$I2SCFG1$0$0           radio_queue
           0000DF41  Fradio_registers$I2SCFG1$0$0       radio_registers
           0000DF41  Fradio_send_test_with_usb_com$I2   radio_send_test_with_usb_com
           0000DF41  Frandom$I2SCFG1$0$0                random
           0000DF41  Frandom_from_sernum$I2SCFG1$0$0    random_from_sernum
           0000DF41  Ftime$I2SCFG1$0$0                  time
           0000DF41  Fusb$I2SCFG1$0$0                   usb
           0000DF41  Fusb_cdc_acm$I2SCFG1$0$0           usb_cdc_acm
           0000DF42  Fboard$I2SDATL$0$0                 board
           0000DF42  Fdma$I2SDATL$0$0                   dma
           0000DF42  Fgreen_led$I2SDATL$0$0             green_led
           0000DF42  Fradio_mac$I2SDATL$0$0             radio_mac
           0000DF42  Fradio_queue$I2SDATL$0$0           radio_queue
           0000DF42  Fradio_registers$I2SDATL$0$0       radio_registers
           0000DF42  Fradio_send_test_with_usb_com$I2   radio_send_test_with_usb_com
           0000DF42  Frandom$I2SDATL$0$0                random
           0000DF42  Frandom_from_sernum$I2SDATL$0$0    random_from_sernum
           0000DF42  Ftime$I2SDATL$0$0                  time
           0000DF42  Fusb$I2SDATL$0$0                   usb
           0000DF42  Fusb_cdc_acm$I2SDATL$0$0           usb_cdc_acm
           0000DF43  Fboard$I2SDATH$0$0                 board
           0000DF43  Fdma$I2SDATH$0$0                   dma
           0000DF43  Fgreen_led$I2SDATH$0$0             green_led
           0000DF43  Fradio_mac$I2SDATH$0$0             radio_mac
           0000DF43  Fradio_queue$I2SDATH$0$0           radio_queue
           0000DF43  Fradio_registers$I2SDATH$0$0       radio_registers
           0000DF43  Fradio_send_test_with_usb_com$I2   radio_send_test_with_usb_com
           0000DF43  Frandom$I2SDATH$0$0                random
           0000DF43  Frandom_from_sernum$I2SDATH$0$0    random_from_sernum
           0000DF43  Ftime$I2SDATH$0$0                  time
           0000DF43  Fusb$I2SDATH$0$0                   usb
           0000DF43  Fusb_cdc_acm$I2SDATH$0$0           usb_cdc_acm
           0000DF44  Fboard$I2SWCNT$0$0                 board
           0000DF44  Fdma$I2SWCNT$0$0                   dma
           0000DF44  Fgreen_led$I2SWCNT$0$0             green_led
           0000DF44  Fradio_mac$I2SWCNT$0$0             radio_mac
           0000DF44  Fradio_queue$I2SWCNT$0$0           radio_queue
           0000DF44  Fradio_registers$I2SWCNT$0$0       radio_registers
ASxxxx Linker V02.00 + NoICE + sdld,  page 76.
Hexadecimal  [32-Bits]

Area                                    Addr        Size        Decimal Bytes (Attributes)
--------------------------------        ----        ----        ------- ----- ------------
.	.ABS.                             00000000    00000000 =           0. bytes (ABS,CON)

      Value  Global                              Global Defined In Module
      -----  --------------------------------   ------------------------
           0000DF44  Fradio_send_test_with_usb_com$I2   radio_send_test_with_usb_com
           0000DF44  Frandom$I2SWCNT$0$0                random
           0000DF44  Frandom_from_sernum$I2SWCNT$0$0    random_from_sernum
           0000DF44  Ftime$I2SWCNT$0$0                  time
           0000DF44  Fusb$I2SWCNT$0$0                   usb
           0000DF44  Fusb_cdc_acm$I2SWCNT$0$0           usb_cdc_acm
           0000DF45  Fboard$I2SSTAT$0$0                 board
           0000DF45  Fdma$I2SSTAT$0$0                   dma
           0000DF45  Fgreen_led$I2SSTAT$0$0             green_led
           0000DF45  Fradio_mac$I2SSTAT$0$0             radio_mac
           0000DF45  Fradio_queue$I2SSTAT$0$0           radio_queue
           0000DF45  Fradio_registers$I2SSTAT$0$0       radio_registers
           0000DF45  Fradio_send_test_with_usb_com$I2   radio_send_test_with_usb_com
           0000DF45  Frandom$I2SSTAT$0$0                random
           0000DF45  Frandom_from_sernum$I2SSTAT$0$0    random_from_sernum
           0000DF45  Ftime$I2SSTAT$0$0                  time
           0000DF45  Fusb$I2SSTAT$0$0                   usb
           0000DF45  Fusb_cdc_acm$I2SSTAT$0$0           usb_cdc_acm
           0000DF46  Fboard$I2SCLKF0$0$0                board
           0000DF46  Fdma$I2SCLKF0$0$0                  dma
           0000DF46  Fgreen_led$I2SCLKF0$0$0            green_led
           0000DF46  Fradio_mac$I2SCLKF0$0$0            radio_mac
           0000DF46  Fradio_queue$I2SCLKF0$0$0          radio_queue
           0000DF46  Fradio_registers$I2SCLKF0$0$0      radio_registers
           0000DF46  Fradio_send_test_with_usb_com$I2   radio_send_test_with_usb_com
           0000DF46  Frandom$I2SCLKF0$0$0               random
           0000DF46  Frandom_from_sernum$I2SCLKF0$0$0   random_from_sernum
           0000DF46  Ftime$I2SCLKF0$0$0                 time
           0000DF46  Fusb$I2SCLKF0$0$0                  usb
           0000DF46  Fusb_cdc_acm$I2SCLKF0$0$0          usb_cdc_acm
           0000DF47  Fboard$I2SCLKF1$0$0                board
           0000DF47  Fdma$I2SCLKF1$0$0                  dma
           0000DF47  Fgreen_led$I2SCLKF1$0$0            green_led
           0000DF47  Fradio_mac$I2SCLKF1$0$0            radio_mac
           0000DF47  Fradio_queue$I2SCLKF1$0$0          radio_queue
           0000DF47  Fradio_registers$I2SCLKF1$0$0      radio_registers
           0000DF47  Fradio_send_test_with_usb_com$I2   radio_send_test_with_usb_com
           0000DF47  Frandom$I2SCLKF1$0$0               random
           0000DF47  Frandom_from_sernum$I2SCLKF1$0$0   random_from_sernum
           0000DF47  Ftime$I2SCLKF1$0$0                 time
           0000DF47  Fusb$I2SCLKF1$0$0                  usb
           0000DF47  Fusb_cdc_acm$I2SCLKF1$0$0          usb_cdc_acm
           0000DF48  Fboard$I2SCLKF2$0$0                board
           0000DF48  Fdma$I2SCLKF2$0$0                  dma
           0000DF48  Fgreen_led$I2SCLKF2$0$0            green_led
           0000DF48  Fradio_mac$I2SCLKF2$0$0            radio_mac
           0000DF48  Fradio_queue$I2SCLKF2$0$0          radio_queue
           0000DF48  Fradio_registers$I2SCLKF2$0$0      radio_registers
           0000DF48  Fradio_send_test_with_usb_com$I2   radio_send_test_with_usb_com
           0000DF48  Frandom$I2SCLKF2$0$0               random
           0000DF48  Frandom_from_sernum$I2SCLKF2$0$0   random_from_sernum
ASxxxx Linker V02.00 + NoICE + sdld,  page 77.
Hexadecimal  [32-Bits]

Area                                    Addr        Size        Decimal Bytes (Attributes)
--------------------------------        ----        ----        ------- ----- ------------
.	.ABS.                             00000000    00000000 =           0. bytes (ABS,CON)

      Value  Global                              Global Defined In Module
      -----  --------------------------------   ------------------------
           0000DF48  Ftime$I2SCLKF2$0$0                 time
           0000DF48  Fusb$I2SCLKF2$0$0                  usb
           0000DF48  Fusb_cdc_acm$I2SCLKF2$0$0          usb_cdc_acm
           0000DFDE  Fboard$T1CC2$0$0                   board
           0000DFDE  Fdma$T1CC2$0$0                     dma
           0000DFDE  Fgreen_led$T1CC2$0$0               green_led
           0000DFDE  Fradio_mac$T1CC2$0$0               radio_mac
           0000DFDE  Fradio_queue$T1CC2$0$0             radio_queue
           0000DFDE  Fradio_registers$T1CC2$0$0         radio_registers
           0000DFDE  Fradio_send_test_with_usb_com$T1   radio_send_test_with_usb_com
           0000DFDE  Frandom$T1CC2$0$0                  random
           0000DFDE  Frandom_from_sernum$T1CC2$0$0      random_from_sernum
           0000DFDE  Ftime$T1CC2$0$0                    time
           0000DFDE  Fusb$T1CC2$0$0                     usb
           0000DFDE  Fusb_cdc_acm$T1CC2$0$0             usb_cdc_acm

ASxxxx Linker V02.00 + NoICE + sdld,  page 78.
Hexadecimal  [32-Bits]

Area                                    Addr        Size        Decimal Bytes (Attributes)
--------------------------------        ----        ----        ------- ----- ------------
BSEG_BYTES                          00000020    00000004 =           4. bytes (REL,CON)

      Value  Global                              Global Defined In Module
      -----  --------------------------------   ------------------------
ASxxxx Linker V02.00 + NoICE + sdld,  page 79.
Hexadecimal  [32-Bits]

Area                                    Addr        Size        Decimal Bytes (Attributes)
--------------------------------        ----        ----        ------- ----- ------------
REG_BANK_0                          00000000    00000008 =           8. bytes (REL,OVR)

      Value  Global                              Global Defined In Module
      -----  --------------------------------   ------------------------
ASxxxx Linker V02.00 + NoICE + sdld,  page 80.
Hexadecimal  [32-Bits]

Area                                    Addr        Size        Decimal Bytes (Attributes)
--------------------------------        ----        ----        ------- ----- ------------
BSEG                                00000000    00000019 =          25. bytes (REL,CON,BIT)

      Value  Global                              Global Defined In Module
      -----  --------------------------------   ------------------------
     0B:   00000000  G$yellowLedOn$0$0                  radio_send_test_with_usb_com
     0B:   00000000  _yellowLedOn                       radio_send_test_with_usb_com
     0B:   00000001  G$serialProtocolError$0$0          radio_send_test_with_usb_com
     0B:   00000001  _serialProtocolError               radio_send_test_with_usb_com
     0B:   00000002  Fradio_mac$strobe$0$0              radio_mac
     0B:   00000003  G$radioRxOverflowOccurred$0$0      radio_mac
     0B:   00000003  _radioRxOverflowOccurred           radio_mac
     0B:   00000004  G$radioTxUnderflowOccurred$0$0     radio_mac
     0B:   00000004  _radioTxUnderflowOccurred          radio_mac
     0B:   00000005  G$radioQueueAllowCrcErrors$0$0     radio_queue
     0B:   00000005  _radioQueueAllowCrcErrors          radio_queue
     0B:   00000006  Fusb_cdc_acm$sendEmptyPacketSoon   usb_cdc_acm
     0B:   00000007  Fusb_cdc_acm$startBootloaderSoon   usb_cdc_acm
     0B:   00000008  Lusb_cdc_acm.sendPacketNow$sloc0   usb_cdc_acm
     0B:   00000009  G$usbSuspendMode$0$0               usb
     0B:   00000009  _usbSuspendMode                    usb
     0B:   0000000A  G$usbActivityFlag$0$0              usb
     0B:   0000000A  _usbActivityFlag                   usb
     0B:   0000000B  Lusb.usbSleep$savedP0IE$1$1        usb
     0B:   0000000C  Fboard$vbusHighBit$0$0             board
     0B:   0000000D  Lboard.boardDetectVbus$savedStat   board
     0B:   0000000E  G$usbBlinkActive$0$0               green_led
     0B:   0000000E  _usbBlinkActive                    green_led

ASxxxx Linker V02.00 + NoICE + sdld,  page 81.
Hexadecimal  [32-Bits]

Area                                    Addr        Size        Decimal Bytes (Attributes)
--------------------------------        ----        ----        ------- ----- ------------
BIT_BANK                            00000024    00000001 =           1. bytes (REL,OVR)

      Value  Global                              Global Defined In Module
      -----  --------------------------------   ------------------------
ASxxxx Linker V02.00 + NoICE + sdld,  page 82.
Hexadecimal  [32-Bits]

Area                                    Addr        Size        Decimal Bytes (Attributes)
--------------------------------        ----        ----        ------- ----- ------------
DSEG                                00000000    00000078 =         120. bytes (REL,CON)

      Value  Global                              Global Defined In Module
      -----  --------------------------------   ------------------------
           00000008  G$radioMacState$0$0                radio_mac
           00000008  _radioMacState                     radio_mac
           00000009  Fradio_queue$radioQueueRxMainLoo   radio_queue
           0000000A  Fradio_queue$radioQueueRxInterru   radio_queue
           0000000B  Fradio_queue$radioQueueTxMainLoo   radio_queue
           0000000C  Fradio_queue$radioQueueTxInterru   radio_queue
           0000000D  Fusb_cdc_acm$inFifoBytesLoaded$0   usb_cdc_acm
           0000000E  _bp                                _bp

ASxxxx Linker V02.00 + NoICE + sdld,  page 83.
Hexadecimal  [32-Bits]

Area                                    Addr        Size        Decimal Bytes (Attributes)
--------------------------------        ----        ----        ------- ----- ------------
OSEG                                00000014    00000004 =           4. bytes (REL,OVR)

      Value  Global                              Global Defined In Module
      -----  --------------------------------   ------------------------
ASxxxx Linker V02.00 + NoICE + sdld,  page 84.
Hexadecimal  [32-Bits]

Area                                    Addr        Size        Decimal Bytes (Attributes)
--------------------------------        ----        ----        ------- ----- ------------
SSEG                                00000025    000000DB =         219. bytes (REL,OVR)

      Value  Global                              Global Defined In Module
      -----  --------------------------------   ------------------------
           00000025  __start__stack                     radio_send_test_with_usb_com

ASxxxx Linker V02.00 + NoICE + sdld,  page 85.
Hexadecimal  [32-Bits]

Area                                    Addr        Size        Decimal Bytes (Attributes)
--------------------------------        ----        ----        ------- ----- ------------
PSEG                                0000F000    0000006D =         109. bytes (REL,CON,PAG,XDATA)

      Value  Global                              Global Defined In Module
      -----  --------------------------------   ------------------------
     0D:   0000F000  G$commandByte$0$0                  radio_send_test_with_usb_com
     0D:   0000F000  _commandByte                       radio_send_test_with_usb_com
     0D:   0000F001  G$dataBytes$0$0                    radio_send_test_with_usb_com
     0D:   0000F001  _dataBytes                         radio_send_test_with_usb_com
     0D:   0000F021  G$dataBytesLeft$0$0                radio_send_test_with_usb_com
     0D:   0000F021  _dataBytesLeft                     radio_send_test_with_usb_com
     0D:   0000F022  G$dataBytesReceived$0$0            radio_send_test_with_usb_com
     0D:   0000F022  _dataBytesReceived                 radio_send_test_with_usb_com
     0D:   0000F023  G$seqCount$0$0                     radio_send_test_with_usb_com
     0D:   0000F023  _seqCount                          radio_send_test_with_usb_com
     0D:   0000F025  G$cSendingOn$0$0                   radio_send_test_with_usb_com
     0D:   0000F025  _cSendingOn                        radio_send_test_with_usb_com
     0D:   0000F026  G$cSendingCount$0$0                radio_send_test_with_usb_com
     0D:   0000F026  _cSendingCount                     radio_send_test_with_usb_com
     0D:   0000F027  Lradio_send_test_with_usb_com.se   radio_send_test_with_usb_com
     0D:   0000F02B  Lradio_mac.radioMacRx$timeout$1$   radio_mac
     0D:   0000F02B  _radioMacRx_PARM_2                 radio_mac
     0D:   0000F02C  Lrandom.randomSeed$seed_lsb$1$1    random
     0D:   0000F02C  _randomSeed_PARM_2                 random
     0D:   0000F02D  G$usbComControlLineState$0$0       usb_cdc_acm
     0D:   0000F02D  _usbComControlLineState            usb_cdc_acm
     0D:   0000F02E  G$usbComSerialState$0$0            usb_cdc_acm
     0D:   0000F02E  _usbComSerialState                 usb_cdc_acm
     0D:   0000F02F  Fusb_cdc_acm$lastReportedSerialS   usb_cdc_acm
     0D:   0000F030  G$usbComLineCodingChangeHandler$   usb_cdc_acm
     0D:   0000F030  _usbComLineCodingChangeHandler     usb_cdc_acm
     0D:   0000F032  Lusb_cdc_acm.usbComRxReceive$siz   usb_cdc_acm
     0D:   0000F032  _usbComRxReceive_PARM_2            usb_cdc_acm
     0D:   0000F033  Lusb_cdc_acm.usbComTxSend$size$1   usb_cdc_acm
     0D:   0000F033  _usbComTxSend_PARM_2               usb_cdc_acm
     0D:   0000F034  G$controlTransferPointer$0$0       usb
     0D:   0000F034  _controlTransferPointer            usb
     0D:   0000F036  Lusb.usbReadFifo$count$1$1         usb
     0D:   0000F036  _usbReadFifo_PARM_2                usb
     0D:   0000F037  Lusb.usbReadFifo$buffer$1$1        usb
     0D:   0000F037  _usbReadFifo_PARM_3                usb
     0D:   0000F039  Lusb.usbWriteFifo$count$1$1        usb
     0D:   0000F039  _usbWriteFifo_PARM_2               usb
     0D:   0000F03A  Lusb.usbWriteFifo$buffer$1$1       usb
     0D:   0000F03A  _usbWriteFifo_PARM_3               usb
     0D:   0000F03C  Lusb.usbControlRead$source$1$1     usb
     0D:   0000F03C  _usbControlRead_PARM_2             usb
     0D:   0000F03E  Lusb.usbControlWrite$source$1$1    usb
     0D:   0000F03E  _usbControlWrite_PARM_2            usb
     0D:   0000F040  Lusb.usbInitEndpointIn$maxPacket   usb
     0D:   0000F040  _usbInitEndpointIn_PARM_2          usb
     0D:   0000F041  Lusb.usbInitEndpointOut$maxPacke   usb
     0D:   0000F041  _usbInitEndpointOut_PARM_2         usb
     0D:   0000F042  Lboard.boardDetectVbus$lastCheck   board
     0D:   0000F043  G$timeMs$0$0                       time
ASxxxx Linker V02.00 + NoICE + sdld,  page 86.
Hexadecimal  [32-Bits]

Area                                    Addr        Size        Decimal Bytes (Attributes)
--------------------------------        ----        ----        ------- ----- ------------
PSEG                                0000F000    0000006D =         109. bytes (REL,CON,PAG,XDATA)

      Value  Global                              Global Defined In Module
      -----  --------------------------------   ------------------------
     0D:   0000F043  _timeMs                            time
     0D:   0000F047  _vsprintf_PARM_2                   sprintf
     0D:   0000F04A  _vsprintf_PARM_3                   sprintf
     0D:   0000F04E  G$usbLastActivity$0$0              green_led
     0D:   0000F04E  _usbLastActivity                   green_led
     0D:   0000F04F  G$usbBlinkStart$0$0                green_led
     0D:   0000F04F  _usbBlinkStart                     green_led
     0D:   0000F05C  __print_format_PARM_2              printf_large
     0D:   0000F05F  __print_format_PARM_3              printf_large
     0D:   0000F062  __print_format_PARM_4              printf_large
     0D:   0000F06C  __gptrput_PARM_2                   _gptrput

ASxxxx Linker V02.00 + NoICE + sdld,  page 87.
Hexadecimal  [32-Bits]

Area                                    Addr        Size        Decimal Bytes (Attributes)
--------------------------------        ----        ----        ------- ----- ------------
XSEG                                0000F000    000001CF =         463. bytes (REL,CON,XDATA)

      Value  Global                              Global Defined In Module
      -----  --------------------------------   ------------------------
     0D:   0000F06D  G$response$0$0                     radio_send_test_with_usb_com
     0D:   0000F06D  _response                          radio_send_test_with_usb_com
     0D:   0000F08D  Fradio_queue$radioQueueRxPacket$   radio_queue
     0D:   0000F0CF  Fradio_queue$radioQueueTxPacket$   radio_queue
     0D:   0000F20F  Fusb_cdc_acm$startBootloaderRequ   usb_cdc_acm
     0D:   0000F210  G$usbSetupPacket$0$0               usb
     0D:   0000F210  _usbSetupPacket                    usb
     0D:   0000F218  G$controlTransferBytesLeft$0$0     usb
     0D:   0000F218  _controlTransferBytesLeft          usb
     0D:   0000F21A  Lusb.usbStandardDeviceRequestHan   usb
     0D:   0000F21C  G$dmaConfig$0$0                    dma
     0D:   0000F21C  _dmaConfig                         dma
ASxxxx Linker V02.00 + NoICE + sdld,  page 88.
Hexadecimal  [32-Bits]

Area                                    Addr        Size        Decimal Bytes (Attributes)
--------------------------------        ----        ----        ------- ----- ------------
XISEG                               0000F23C    00000009 =           9. bytes (REL,CON,XDATA)

      Value  Global                              Global Defined In Module
      -----  --------------------------------   ------------------------
     0D:   0000F23C  G$usbComLineCoding$0$0             usb_cdc_acm
     0D:   0000F23C  _usbComLineCoding                  usb_cdc_acm
     0D:   0000F243  G$usbDeviceState$0$0               usb
     0D:   0000F243  _usbDeviceState                    usb
     0D:   0000F244  G$controlTransferState$0$0         usb
     0D:   0000F244  _controlTransferState              usb
ASxxxx Linker V02.00 + NoICE + sdld,  page 89.
Hexadecimal  [32-Bits]

Area                                    Addr        Size        Decimal Bytes (Attributes)
--------------------------------        ----        ----        ------- ----- ------------
HOME                                00000400    0000008D =         141. bytes (REL,CON,CODE)

      Value  Global                              Global Defined In Module
      -----  --------------------------------   ------------------------
     0C:   00000400  A$radio_send_test_with_usb_com$7   radio_send_test_with_usb_com
     0C:   00000403  A$radio_send_test_with_usb_com$7   radio_send_test_with_usb_com
     0C:   0000040B  A$radio_send_test_with_usb_com$7   radio_send_test_with_usb_com
     0C:   00000413  A$radio_send_test_with_usb_com$7   radio_send_test_with_usb_com
     0C:   0000041B  A$radio_send_test_with_usb_com$7   radio_send_test_with_usb_com
     0C:   00000423  A$radio_send_test_with_usb_com$7   radio_send_test_with_usb_com
     0C:   0000042B  A$radio_send_test_with_usb_com$7   radio_send_test_with_usb_com
     0C:   00000433  A$radio_send_test_with_usb_com$7   radio_send_test_with_usb_com
     0C:   0000043B  A$radio_send_test_with_usb_com$7   radio_send_test_with_usb_com
     0C:   00000443  A$radio_send_test_with_usb_com$7   radio_send_test_with_usb_com
     0C:   0000044B  A$radio_send_test_with_usb_com$7   radio_send_test_with_usb_com
     0C:   00000453  A$radio_send_test_with_usb_com$8   radio_send_test_with_usb_com
     0C:   0000045B  A$radio_send_test_with_usb_com$8   radio_send_test_with_usb_com
     0C:   00000463  A$radio_send_test_with_usb_com$8   radio_send_test_with_usb_com
     0C:   0000046B  A$radio_send_test_with_usb_com$8   radio_send_test_with_usb_com
     0C:   00000473  A$radio_send_test_with_usb_com$8   radio_send_test_with_usb_com
     0C:   0000047B  A$radio_send_test_with_usb_com$8   radio_send_test_with_usb_com
     0C:   00000483  A$radio_send_test_with_usb_com$8   radio_send_test_with_usb_com
     0C:   00000486  A$radio_send_test_with_usb_com$8   radio_send_test_with_usb_com
     0C:   00000486  __sdcc_program_startup             radio_send_test_with_usb_com
     0C:   00000489  A$radio_send_test_with_usb_com$8   radio_send_test_with_usb_com
     0C:   0000048B  __sdcc_call_dptr                   

ASxxxx Linker V02.00 + NoICE + sdld,  page 90.
Hexadecimal  [32-Bits]

Area                                    Addr        Size        Decimal Bytes (Attributes)
--------------------------------        ----        ----        ------- ----- ------------
GSINIT0                             0000048D    00000003 =           3. bytes (REL,CON,CODE)

      Value  Global                              Global Defined In Module
      -----  --------------------------------   ------------------------
     0C:   0000048D  __sdcc_gsinit_startup              

ASxxxx Linker V02.00 + NoICE + sdld,  page 91.
Hexadecimal  [32-Bits]

Area                                    Addr        Size        Decimal Bytes (Attributes)
--------------------------------        ----        ----        ------- ----- ------------
GSINIT2                             00000490    0000000A =          10. bytes (REL,CON,CODE)

      Value  Global                              Global Defined In Module
      -----  --------------------------------   ------------------------
ASxxxx Linker V02.00 + NoICE + sdld,  page 92.
Hexadecimal  [32-Bits]

Area                                    Addr        Size        Decimal Bytes (Attributes)
--------------------------------        ----        ----        ------- ----- ------------
GSINIT3                             0000049A    00000022 =          34. bytes (REL,CON,CODE)

      Value  Global                              Global Defined In Module
      -----  --------------------------------   ------------------------
     0C:   0000049A  __mcs51_genXINIT                   

ASxxxx Linker V02.00 + NoICE + sdld,  page 93.
Hexadecimal  [32-Bits]

Area                                    Addr        Size        Decimal Bytes (Attributes)
--------------------------------        ----        ----        ------- ----- ------------
GSINIT4                             000004BC    0000002A =          42. bytes (REL,CON,CODE)

      Value  Global                              Global Defined In Module
      -----  --------------------------------   ------------------------
     0C:   000004BC  __mcs51_genRAMCLEAR                
     0C:   000004C2  __mcs51_genXRAMCLEAR               

ASxxxx Linker V02.00 + NoICE + sdld,  page 94.
Hexadecimal  [32-Bits]

Area                                    Addr        Size        Decimal Bytes (Attributes)
--------------------------------        ----        ----        ------- ----- ------------
GSINIT                              000004E6    00000057 =          87. bytes (REL,CON,CODE)

      Value  Global                              Global Defined In Module
      -----  --------------------------------   ------------------------
     0C:   000004E6  A$radio_send_test_with_usb_com$8   radio_send_test_with_usb_com
     0C:   000004E6  C$radio_send_test_with_usb_com.c   radio_send_test_with_usb_com
     0C:   000004E8  A$radio_send_test_with_usb_com$8   radio_send_test_with_usb_com
     0C:   000004E8  C$radio_send_test_with_usb_com.c   radio_send_test_with_usb_com
     0C:   000004EA  A$radio_send_test_with_usb_com$8   radio_send_test_with_usb_com
     0C:   000004EA  C$radio_send_test_with_usb_com.c   radio_send_test_with_usb_com
     0C:   000004EC  A$radio_send_test_with_usb_com$8   radio_send_test_with_usb_com
     0C:   000004ED  A$radio_send_test_with_usb_com$8   radio_send_test_with_usb_com
     0C:   000004EE  A$radio_send_test_with_usb_com$8   radio_send_test_with_usb_com
     0C:   000004EE  C$radio_send_test_with_usb_com.c   radio_send_test_with_usb_com
     0C:   000004F0  A$radio_send_test_with_usb_com$8   radio_send_test_with_usb_com
     0C:   000004F1  A$radio_send_test_with_usb_com$8   radio_send_test_with_usb_com
     0C:   000004F2  A$radio_send_test_with_usb_com$8   radio_send_test_with_usb_com
     0C:   000004F3  A$radio_send_test_with_usb_com$8   radio_send_test_with_usb_com
     0C:   000004F4  A$radio_send_test_with_usb_com$8   radio_send_test_with_usb_com
     0C:   000004F4  C$radio_send_test_with_usb_com.c   radio_send_test_with_usb_com
     0C:   000004F6  A$radio_send_test_with_usb_com$8   radio_send_test_with_usb_com
     0C:   000004F7  A$radio_send_test_with_usb_com$8   radio_send_test_with_usb_com
     0C:   000004F8  A$radio_send_test_with_usb_com$8   radio_send_test_with_usb_com
     0C:   000004F8  C$radio_send_test_with_usb_com.c   radio_send_test_with_usb_com
     0C:   000004FA  A$radio_send_test_with_usb_com$8   radio_send_test_with_usb_com
     0C:   000004FB  A$radio_send_test_with_usb_com$8   radio_send_test_with_usb_com
     0C:   000004FC  A$radio_mac$754                    radio_mac
     0C:   000004FC  C$radio_mac.c$55$1$1               radio_mac
     0C:   000004FF  A$radio_mac$758                    radio_mac
     0C:   000004FF  C$radio_mac.c$44$1$1               radio_mac
     0C:   00000501  A$radio_mac$762                    radio_mac
     0C:   00000501  C$radio_mac.c$47$1$1               radio_mac
     0C:   00000503  A$radio_mac$766                    radio_mac
     0C:   00000503  C$radio_mac.c$48$1$1               radio_mac
     0C:   00000505  A$radio_queue$753                  radio_queue
     0C:   00000505  C$radio_queue.c$54$1$1             radio_queue
     0C:   00000508  A$radio_queue$757                  radio_queue
     0C:   00000508  C$radio_queue.c$55$1$1             radio_queue
     0C:   0000050B  A$radio_queue$761                  radio_queue
     0C:   0000050B  C$radio_queue.c$60$1$1             radio_queue
     0C:   0000050E  A$radio_queue$765                  radio_queue
     0C:   0000050E  C$radio_queue.c$61$1$1             radio_queue
     0C:   00000511  A$radio_queue$769                  radio_queue
     0C:   00000511  C$radio_queue.c$66$1$1             radio_queue
     0C:   00000513  A$usb_cdc_acm$784                  usb_cdc_acm
     0C:   00000513  C$usb_cdc_acm.c$97$1$1             usb_cdc_acm
     0C:   00000516  A$usb_cdc_acm$788                  usb_cdc_acm
     0C:   00000516  C$usb_cdc_acm.c$92$1$1             usb_cdc_acm
     0C:   00000518  A$usb_cdc_acm$792                  usb_cdc_acm
     0C:   00000518  C$usb_cdc_acm.c$100$1$1            usb_cdc_acm
     0C:   0000051A  A$usb_cdc_acm$796                  usb_cdc_acm
     0C:   0000051A  C$usb_cdc_acm.c$71$1$1             usb_cdc_acm
     0C:   0000051C  A$usb_cdc_acm$797                  usb_cdc_acm
     0C:   0000051D  A$usb_cdc_acm$798                  usb_cdc_acm
ASxxxx Linker V02.00 + NoICE + sdld,  page 95.
Hexadecimal  [32-Bits]

Area                                    Addr        Size        Decimal Bytes (Attributes)
--------------------------------        ----        ----        ------- ----- ------------
GSINIT                              000004E6    00000057 =          87. bytes (REL,CON,CODE)

      Value  Global                              Global Defined In Module
      -----  --------------------------------   ------------------------
     0C:   0000051E  A$usb_cdc_acm$802                  usb_cdc_acm
     0C:   0000051E  C$usb_cdc_acm.c$73$1$1             usb_cdc_acm
     0C:   00000520  A$usb_cdc_acm$803                  usb_cdc_acm
     0C:   00000521  A$usb_cdc_acm$804                  usb_cdc_acm
     0C:   00000522  A$usb_cdc_acm$808                  usb_cdc_acm
     0C:   00000522  C$usb_cdc_acm.c$77$1$1             usb_cdc_acm
     0C:   00000524  A$usb_cdc_acm$809                  usb_cdc_acm
     0C:   00000526  A$usb_cdc_acm$810                  usb_cdc_acm
     0C:   00000527  A$usb_cdc_acm$814                  usb_cdc_acm
     0C:   00000527  C$usb_cdc_acm.c$87$1$1             usb_cdc_acm
     0C:   00000529  A$usb_cdc_acm$815                  usb_cdc_acm
     0C:   0000052B  A$usb_cdc_acm$816                  usb_cdc_acm
     0C:   0000052D  A$usb_cdc_acm$817                  usb_cdc_acm
     0C:   0000052E  A$usb_cdc_acm$818                  usb_cdc_acm
     0C:   0000052F  A$usb_cdc_acm$819                  usb_cdc_acm
     0C:   00000530  A$usb_cdc_acm$820                  usb_cdc_acm
     0C:   00000531  A$usb_cdc_acm$821                  usb_cdc_acm
     0C:   00000532  A$usb$801                          usb
     0C:   00000532  C$usb.c$24$1$1                     usb
     0C:   00000534  A$usb$805                          usb
     0C:   00000534  C$usb.c$27$1$1                     usb
     0C:   00000536  A$board$741                        board
     0C:   00000536  C$board.c$86$2$1                   board
     0C:   00000538  A$board$742                        board
     0C:   0000053A  A$board$743                        board
     0C:   0000053B  A$green_led$729                    green_led
     0C:   0000053B  C$green_led.c$9$1$1                green_led

ASxxxx Linker V02.00 + NoICE + sdld,  page 96.
Hexadecimal  [32-Bits]

Area                                    Addr        Size        Decimal Bytes (Attributes)
--------------------------------        ----        ----        ------- ----- ------------
GSFINAL                             0000053D    00000003 =           3. bytes (REL,CON,CODE)

      Value  Global                              Global Defined In Module
      -----  --------------------------------   ------------------------
     0C:   0000053D  A$radio_send_test_with_usb_com$8   radio_send_test_with_usb_com

ASxxxx Linker V02.00 + NoICE + sdld,  page 97.
Hexadecimal  [32-Bits]

Area                                    Addr        Size        Decimal Bytes (Attributes)
--------------------------------        ----        ----        ------- ----- ------------
CSEG                                00000540    00001C08 =        7176. bytes (REL,CON,CODE)

      Value  Global                              Global Defined In Module
      -----  --------------------------------   ------------------------
     0C:   00000540  A$radio_send_test_with_usb_com$8   radio_send_test_with_usb_com
     0C:   00000540  C$radio_send_test_with_usb_com.c   radio_send_test_with_usb_com
     0C:   00000540  C$radio_send_test_with_usb_com.c   radio_send_test_with_usb_com
     0C:   00000540  G$updateLeds$0$0                   radio_send_test_with_usb_com
     0C:   00000540  _updateLeds                        radio_send_test_with_usb_com
     0C:   00000543  A$radio_send_test_with_usb_com$8   radio_send_test_with_usb_com
     0C:   00000543  C$radio_send_test_with_usb_com.c   radio_send_test_with_usb_com
     0C:   00000546  A$radio_send_test_with_usb_com$9   radio_send_test_with_usb_com
     0C:   00000549  A$radio_send_test_with_usb_com$9   radio_send_test_with_usb_com
     0C:   0000054B  A$radio_send_test_with_usb_com$9   radio_send_test_with_usb_com
     0C:   0000054D  A$radio_send_test_with_usb_com$9   radio_send_test_with_usb_com
     0C:   00000550  A$radio_send_test_with_usb_com$9   radio_send_test_with_usb_com
     0C:   00000552  A$radio_send_test_with_usb_com$9   radio_send_test_with_usb_com
     0C:   00000552  C$radio_send_test_with_usb_com.c   radio_send_test_with_usb_com
     0C:   00000555  A$radio_send_test_with_usb_com$9   radio_send_test_with_usb_com
     0C:   00000558  A$radio_send_test_with_usb_com$9   radio_send_test_with_usb_com
     0C:   0000055A  A$radio_send_test_with_usb_com$9   radio_send_test_with_usb_com
     0C:   0000055C  A$radio_send_test_with_usb_com$9   radio_send_test_with_usb_com
     0C:   0000055F  A$radio_send_test_with_usb_com$9   radio_send_test_with_usb_com
     0C:   00000561  A$radio_send_test_with_usb_com$9   radio_send_test_with_usb_com
     0C:   00000561  C$radio_send_test_with_usb_com.c   radio_send_test_with_usb_com
     0C:   00000561  XG$updateLeds$0$0                  radio_send_test_with_usb_com
     0C:   00000562  A$radio_send_test_with_usb_com$9   radio_send_test_with_usb_com
     0C:   00000562  C$radio_send_test_with_usb_com.c   radio_send_test_with_usb_com
     0C:   00000562  C$radio_send_test_with_usb_com.c   radio_send_test_with_usb_com
     0C:   00000562  G$executeCommand$0$0               radio_send_test_with_usb_com
     0C:   00000562  _executeCommand                    radio_send_test_with_usb_com
     0C:   00000564  A$radio_send_test_with_usb_com$9   radio_send_test_with_usb_com
     0C:   00000565  A$radio_send_test_with_usb_com$9   radio_send_test_with_usb_com
     0C:   00000568  A$radio_send_test_with_usb_com$9   radio_send_test_with_usb_com
     0C:   0000056A  A$radio_send_test_with_usb_com$9   radio_send_test_with_usb_com
     0C:   0000056C  A$radio_send_test_with_usb_com$9   radio_send_test_with_usb_com
     0C:   0000056D  A$radio_send_test_with_usb_com$9   radio_send_test_with_usb_com
     0C:   0000056D  C$radio_send_test_with_usb_com.c   radio_send_test_with_usb_com
     0C:   00000570  A$radio_send_test_with_usb_com$9   radio_send_test_with_usb_com
     0C:   00000572  A$radio_send_test_with_usb_com$9   radio_send_test_with_usb_com
     0C:   00000572  C$radio_send_test_with_usb_com.c   radio_send_test_with_usb_com
     0C:   00000574  A$radio_send_test_with_usb_com$9   radio_send_test_with_usb_com
     0C:   00000575  A$radio_send_test_with_usb_com$9   radio_send_test_with_usb_com
     0C:   00000576  A$radio_send_test_with_usb_com$9   radio_send_test_with_usb_com
     0C:   00000578  A$radio_send_test_with_usb_com$9   radio_send_test_with_usb_com
     0C:   00000579  A$radio_send_test_with_usb_com$9   radio_send_test_with_usb_com
     0C:   0000057B  A$radio_send_test_with_usb_com$9   radio_send_test_with_usb_com
     0C:   0000057D  A$radio_send_test_with_usb_com$9   radio_send_test_with_usb_com
     0C:   0000057D  C$radio_send_test_with_usb_com.c   radio_send_test_with_usb_com
     0C:   0000057D  C$radio_send_test_with_usb_com.c   radio_send_test_with_usb_com
     0C:   0000057F  A$radio_send_test_with_usb_com$9   radio_send_test_with_usb_com
     0C:   0000057F  C$radio_send_test_with_usb_com.c   radio_send_test_with_usb_com
     0C:   00000581  A$radio_send_test_with_usb_com$9   radio_send_test_with_usb_com
     0C:   00000581  C$radio_send_test_with_usb_com.c   radio_send_test_with_usb_com
ASxxxx Linker V02.00 + NoICE + sdld,  page 98.
Hexadecimal  [32-Bits]

Area                                    Addr        Size        Decimal Bytes (Attributes)
--------------------------------        ----        ----        ------- ----- ------------
CSEG                                00000540    00001C08 =        7176. bytes (REL,CON,CODE)

      Value  Global                              Global Defined In Module
      -----  --------------------------------   ------------------------
     0C:   00000581  C$radio_send_test_with_usb_com.c   radio_send_test_with_usb_com
     0C:   00000581  XG$executeCommand$0$0              radio_send_test_with_usb_com
     0C:   00000582  A$radio_send_test_with_usb_com$9   radio_send_test_with_usb_com
     0C:   00000582  C$radio_send_test_with_usb_com.c   radio_send_test_with_usb_com
     0C:   00000582  C$radio_send_test_with_usb_com.c   radio_send_test_with_usb_com
     0C:   00000582  G$sendPacket$0$0                   radio_send_test_with_usb_com
     0C:   00000582  _sendPacket                        radio_send_test_with_usb_com
     0C:   00000585  A$radio_send_test_with_usb_com$9   radio_send_test_with_usb_com
     0C:   00000587  A$radio_send_test_with_usb_com$9   radio_send_test_with_usb_com
     0C:   00000589  A$radio_send_test_with_usb_com$9   radio_send_test_with_usb_com
     0C:   0000058B  A$radio_send_test_with_usb_com$9   radio_send_test_with_usb_com
     0C:   0000058D  A$radio_send_test_with_usb_com$9   radio_send_test_with_usb_com
     0C:   0000058E  A$radio_send_test_with_usb_com$9   radio_send_test_with_usb_com
     0C:   0000058F  A$radio_send_test_with_usb_com$9   radio_send_test_with_usb_com
     0C:   00000591  A$radio_send_test_with_usb_com$9   radio_send_test_with_usb_com
     0C:   00000594  A$radio_send_test_with_usb_com$9   radio_send_test_with_usb_com
     0C:   00000594  C$radio_send_test_with_usb_com.c   radio_send_test_with_usb_com
     0C:   00000596  A$radio_send_test_with_usb_com$9   radio_send_test_with_usb_com
     0C:   00000598  A$radio_send_test_with_usb_com$9   radio_send_test_with_usb_com
     0C:   0000059A  A$radio_send_test_with_usb_com$9   radio_send_test_with_usb_com
     0C:   0000059B  A$radio_send_test_with_usb_com$9   radio_send_test_with_usb_com
     0C:   0000059B  C$radio_send_test_with_usb_com.c   radio_send_test_with_usb_com
     0C:   0000059D  A$radio_send_test_with_usb_com$9   radio_send_test_with_usb_com
     0C:   0000059F  A$radio_send_test_with_usb_com$1   radio_send_test_with_usb_com
     0C:   000005A0  A$radio_send_test_with_usb_com$1   radio_send_test_with_usb_com
     0C:   000005A2  A$radio_send_test_with_usb_com$1   radio_send_test_with_usb_com
     0C:   000005A3  A$radio_send_test_with_usb_com$1   radio_send_test_with_usb_com
     0C:   000005A5  A$radio_send_test_with_usb_com$1   radio_send_test_with_usb_com
     0C:   000005A6  A$radio_send_test_with_usb_com$1   radio_send_test_with_usb_com
     0C:   000005A7  A$radio_send_test_with_usb_com$1   radio_send_test_with_usb_com
     0C:   000005A8  A$radio_send_test_with_usb_com$1   radio_send_test_with_usb_com
     0C:   000005AA  A$radio_send_test_with_usb_com$1   radio_send_test_with_usb_com
     0C:   000005AB  A$radio_send_test_with_usb_com$1   radio_send_test_with_usb_com
     0C:   000005AC  A$radio_send_test_with_usb_com$1   radio_send_test_with_usb_com
     0C:   000005AC  C$radio_send_test_with_usb_com.c   radio_send_test_with_usb_com
     0C:   000005AE  A$radio_send_test_with_usb_com$1   radio_send_test_with_usb_com
     0C:   000005B0  A$radio_send_test_with_usb_com$1   radio_send_test_with_usb_com
     0C:   000005B1  A$radio_send_test_with_usb_com$1   radio_send_test_with_usb_com
     0C:   000005B2  A$radio_send_test_with_usb_com$1   radio_send_test_with_usb_com
     0C:   000005B4  A$radio_send_test_with_usb_com$1   radio_send_test_with_usb_com
     0C:   000005B5  A$radio_send_test_with_usb_com$1   radio_send_test_with_usb_com
     0C:   000005B6  A$radio_send_test_with_usb_com$1   radio_send_test_with_usb_com
     0C:   000005B6  C$radio_send_test_with_usb_com.c   radio_send_test_with_usb_com
     0C:   000005B8  A$radio_send_test_with_usb_com$1   radio_send_test_with_usb_com
     0C:   000005BA  A$radio_send_test_with_usb_com$1   radio_send_test_with_usb_com
     0C:   000005BD  A$radio_send_test_with_usb_com$1   radio_send_test_with_usb_com
     0C:   000005BF  A$radio_send_test_with_usb_com$1   radio_send_test_with_usb_com
     0C:   000005C1  A$radio_send_test_with_usb_com$1   radio_send_test_with_usb_com
     0C:   000005C3  A$radio_send_test_with_usb_com$1   radio_send_test_with_usb_com
     0C:   000005C4  A$radio_send_test_with_usb_com$1   radio_send_test_with_usb_com
     0C:   000005C5  A$radio_send_test_with_usb_com$1   radio_send_test_with_usb_com
ASxxxx Linker V02.00 + NoICE + sdld,  page 99.
Hexadecimal  [32-Bits]

Area                                    Addr        Size        Decimal Bytes (Attributes)
--------------------------------        ----        ----        ------- ----- ------------
CSEG                                00000540    00001C08 =        7176. bytes (REL,CON,CODE)

      Value  Global                              Global Defined In Module
      -----  --------------------------------   ------------------------
     0C:   000005C7  A$radio_send_test_with_usb_com$1   radio_send_test_with_usb_com
     0C:   000005C8  A$radio_send_test_with_usb_com$1   radio_send_test_with_usb_com
     0C:   000005C9  A$radio_send_test_with_usb_com$1   radio_send_test_with_usb_com
     0C:   000005CB  A$radio_send_test_with_usb_com$1   radio_send_test_with_usb_com
     0C:   000005CC  A$radio_send_test_with_usb_com$1   radio_send_test_with_usb_com
     0C:   000005CE  A$radio_send_test_with_usb_com$1   radio_send_test_with_usb_com
     0C:   000005CF  A$radio_send_test_with_usb_com$1   radio_send_test_with_usb_com
     0C:   000005D0  A$radio_send_test_with_usb_com$1   radio_send_test_with_usb_com
     0C:   000005D2  A$radio_send_test_with_usb_com$1   radio_send_test_with_usb_com
     0C:   000005D4  A$radio_send_test_with_usb_com$1   radio_send_test_with_usb_com
     0C:   000005D4  C$radio_send_test_with_usb_com.c   radio_send_test_with_usb_com
     0C:   000005D6  A$radio_send_test_with_usb_com$1   radio_send_test_with_usb_com
     0C:   000005D8  A$radio_send_test_with_usb_com$1   radio_send_test_with_usb_com
     0C:   000005D9  A$radio_send_test_with_usb_com$1   radio_send_test_with_usb_com
     0C:   000005DA  A$radio_send_test_with_usb_com$1   radio_send_test_with_usb_com
     0C:   000005DB  A$radio_send_test_with_usb_com$1   radio_send_test_with_usb_com
     0C:   000005DD  A$radio_send_test_with_usb_com$1   radio_send_test_with_usb_com
     0C:   000005DE  A$radio_send_test_with_usb_com$1   radio_send_test_with_usb_com
     0C:   000005DF  A$radio_send_test_with_usb_com$1   radio_send_test_with_usb_com
     0C:   000005DF  C$radio_send_test_with_usb_com.c   radio_send_test_with_usb_com
     0C:   000005E1  A$radio_send_test_with_usb_com$1   radio_send_test_with_usb_com
     0C:   000005E3  A$radio_send_test_with_usb_com$1   radio_send_test_with_usb_com
     0C:   000005E4  A$radio_send_test_with_usb_com$1   radio_send_test_with_usb_com
     0C:   000005E5  A$radio_send_test_with_usb_com$1   radio_send_test_with_usb_com
     0C:   000005E6  A$radio_send_test_with_usb_com$1   radio_send_test_with_usb_com
     0C:   000005E7  A$radio_send_test_with_usb_com$1   radio_send_test_with_usb_com
     0C:   000005E9  A$radio_send_test_with_usb_com$1   radio_send_test_with_usb_com
     0C:   000005EA  A$radio_send_test_with_usb_com$1   radio_send_test_with_usb_com
     0C:   000005EB  A$radio_send_test_with_usb_com$1   radio_send_test_with_usb_com
     0C:   000005EB  C$radio_send_test_with_usb_com.c   radio_send_test_with_usb_com
     0C:   000005ED  A$radio_send_test_with_usb_com$1   radio_send_test_with_usb_com
     0C:   000005EF  A$radio_send_test_with_usb_com$1   radio_send_test_with_usb_com
     0C:   000005F0  A$radio_send_test_with_usb_com$1   radio_send_test_with_usb_com
     0C:   000005F1  A$radio_send_test_with_usb_com$1   radio_send_test_with_usb_com
     0C:   000005F2  A$radio_send_test_with_usb_com$1   radio_send_test_with_usb_com
     0C:   000005F3  A$radio_send_test_with_usb_com$1   radio_send_test_with_usb_com
     0C:   000005F4  A$radio_send_test_with_usb_com$1   radio_send_test_with_usb_com
     0C:   000005F6  A$radio_send_test_with_usb_com$1   radio_send_test_with_usb_com
     0C:   000005F7  A$radio_send_test_with_usb_com$1   radio_send_test_with_usb_com
     0C:   000005F8  A$radio_send_test_with_usb_com$1   radio_send_test_with_usb_com
     0C:   000005F8  C$radio_send_test_with_usb_com.c   radio_send_test_with_usb_com
     0C:   000005FA  A$radio_send_test_with_usb_com$1   radio_send_test_with_usb_com
     0C:   000005FB  A$radio_send_test_with_usb_com$1   radio_send_test_with_usb_com
     0C:   000005FD  A$radio_send_test_with_usb_com$1   radio_send_test_with_usb_com
     0C:   000005FE  A$radio_send_test_with_usb_com$1   radio_send_test_with_usb_com
     0C:   000005FF  A$radio_send_test_with_usb_com$1   radio_send_test_with_usb_com
     0C:   00000601  A$radio_send_test_with_usb_com$1   radio_send_test_with_usb_com
     0C:   00000603  A$radio_send_test_with_usb_com$1   radio_send_test_with_usb_com
     0C:   00000604  A$radio_send_test_with_usb_com$1   radio_send_test_with_usb_com
     0C:   00000605  A$radio_send_test_with_usb_com$1   radio_send_test_with_usb_com
     0C:   00000605  C$radio_send_test_with_usb_com.c   radio_send_test_with_usb_com
ASxxxx Linker V02.00 + NoICE + sdld,  page 100.
Hexadecimal  [32-Bits]

Area                                    Addr        Size        Decimal Bytes (Attributes)
--------------------------------        ----        ----        ------- ----- ------------
CSEG                                00000540    00001C08 =        7176. bytes (REL,CON,CODE)

      Value  Global                              Global Defined In Module
      -----  --------------------------------   ------------------------
     0C:   00000608  A$radio_send_test_with_usb_com$1   radio_send_test_with_usb_com
     0C:   00000608  C$radio_send_test_with_usb_com.c   radio_send_test_with_usb_com
     0C:   0000060A  A$radio_send_test_with_usb_com$1   radio_send_test_with_usb_com
     0C:   0000060B  A$radio_send_test_with_usb_com$1   radio_send_test_with_usb_com
     0C:   0000060D  A$radio_send_test_with_usb_com$1   radio_send_test_with_usb_com
     0C:   0000060E  A$radio_send_test_with_usb_com$1   radio_send_test_with_usb_com
     0C:   0000060F  A$radio_send_test_with_usb_com$1   radio_send_test_with_usb_com
     0C:   00000610  A$radio_send_test_with_usb_com$1   radio_send_test_with_usb_com
     0C:   00000612  A$radio_send_test_with_usb_com$1   radio_send_test_with_usb_com
     0C:   00000613  A$radio_send_test_with_usb_com$1   radio_send_test_with_usb_com
     0C:   00000613  C$radio_send_test_with_usb_com.c   radio_send_test_with_usb_com
     0C:   00000616  A$radio_send_test_with_usb_com$1   radio_send_test_with_usb_com
     0C:   00000618  A$radio_send_test_with_usb_com$1   radio_send_test_with_usb_com
     0C:   00000618  C$radio_send_test_with_usb_com.c   radio_send_test_with_usb_com
     0C:   0000061B  A$radio_send_test_with_usb_com$1   radio_send_test_with_usb_com
     0C:   0000061B  C$radio_send_test_with_usb_com.c   radio_send_test_with_usb_com
     0C:   0000061B  XG$sendPacket$0$0                  radio_send_test_with_usb_com
     0C:   0000061C  A$radio_send_test_with_usb_com$1   radio_send_test_with_usb_com
     0C:   0000061C  C$radio_send_test_with_usb_com.c   radio_send_test_with_usb_com
     0C:   0000061C  C$radio_send_test_with_usb_com.c   radio_send_test_with_usb_com
     0C:   0000061C  G$processByte$0$0                  radio_send_test_with_usb_com
     0C:   0000061C  _processByte                       radio_send_test_with_usb_com
     0C:   0000061E  A$radio_send_test_with_usb_com$1   radio_send_test_with_usb_com
     0C:   0000061F  A$radio_send_test_with_usb_com$1   radio_send_test_with_usb_com
     0C:   00000622  A$radio_send_test_with_usb_com$1   radio_send_test_with_usb_com
     0C:   00000622  C$radio_send_test_with_usb_com.c   radio_send_test_with_usb_com
     0C:   00000624  A$radio_send_test_with_usb_com$1   radio_send_test_with_usb_com
     0C:   00000625  A$radio_send_test_with_usb_com$1   radio_send_test_with_usb_com
     0C:   00000627  A$radio_send_test_with_usb_com$1   radio_send_test_with_usb_com
     0C:   00000627  C$radio_send_test_with_usb_com.c   radio_send_test_with_usb_com
     0C:   00000629  A$radio_send_test_with_usb_com$1   radio_send_test_with_usb_com
     0C:   00000629  C$radio_send_test_with_usb_com.c   radio_send_test_with_usb_com
     0C:   0000062B  A$radio_send_test_with_usb_com$1   radio_send_test_with_usb_com
     0C:   0000062C  A$radio_send_test_with_usb_com$1   radio_send_test_with_usb_com
     0C:   0000062D  A$radio_send_test_with_usb_com$1   radio_send_test_with_usb_com
     0C:   0000062D  C$radio_send_test_with_usb_com.c   radio_send_test_with_usb_com
     0C:   0000062F  A$radio_send_test_with_usb_com$1   radio_send_test_with_usb_com
     0C:   00000630  A$radio_send_test_with_usb_com$1   radio_send_test_with_usb_com
     0C:   00000631  A$radio_send_test_with_usb_com$1   radio_send_test_with_usb_com
     0C:   00000631  C$radio_send_test_with_usb_com.c   radio_send_test_with_usb_com
     0C:   00000633  A$radio_send_test_with_usb_com$1   radio_send_test_with_usb_com
     0C:   00000634  A$radio_send_test_with_usb_com$1   radio_send_test_with_usb_com
     0C:   00000635  A$radio_send_test_with_usb_com$1   radio_send_test_with_usb_com
     0C:   00000635  C$radio_send_test_with_usb_com.c   radio_send_test_with_usb_com
     0C:   00000638  A$radio_send_test_with_usb_com$1   radio_send_test_with_usb_com
     0C:   0000063A  A$radio_send_test_with_usb_com$1   radio_send_test_with_usb_com
     0C:   0000063D  A$radio_send_test_with_usb_com$1   radio_send_test_with_usb_com
     0C:   0000063D  C$radio_send_test_with_usb_com.c   radio_send_test_with_usb_com
     0C:   0000063D  C$radio_send_test_with_usb_com.c   radio_send_test_with_usb_com
     0C:   0000063F  A$radio_send_test_with_usb_com$1   radio_send_test_with_usb_com
     0C:   00000640  A$radio_send_test_with_usb_com$1   radio_send_test_with_usb_com
ASxxxx Linker V02.00 + NoICE + sdld,  page 101.
Hexadecimal  [32-Bits]

Area                                    Addr        Size        Decimal Bytes (Attributes)
--------------------------------        ----        ----        ------- ----- ------------
CSEG                                00000540    00001C08 =        7176. bytes (REL,CON,CODE)

      Value  Global                              Global Defined In Module
      -----  --------------------------------   ------------------------
     0C:   00000641  A$radio_send_test_with_usb_com$1   radio_send_test_with_usb_com
     0C:   00000641  C$radio_send_test_with_usb_com.c   radio_send_test_with_usb_com
     0C:   00000641  C$radio_send_test_with_usb_com.c   radio_send_test_with_usb_com
     0C:   00000643  A$radio_send_test_with_usb_com$1   radio_send_test_with_usb_com
     0C:   00000643  C$radio_send_test_with_usb_com.c   radio_send_test_with_usb_com
     0C:   00000645  A$radio_send_test_with_usb_com$1   radio_send_test_with_usb_com
     0C:   00000645  C$radio_send_test_with_usb_com.c   radio_send_test_with_usb_com
     0C:   00000648  A$radio_send_test_with_usb_com$1   radio_send_test_with_usb_com
     0C:   00000648  C$radio_send_test_with_usb_com.c   radio_send_test_with_usb_com
     0C:   00000648  C$radio_send_test_with_usb_com.c   radio_send_test_with_usb_com
     0C:   0000064B  A$radio_send_test_with_usb_com$1   radio_send_test_with_usb_com
     0C:   0000064E  A$radio_send_test_with_usb_com$1   radio_send_test_with_usb_com
     0C:   0000064E  C$radio_send_test_with_usb_com.c   radio_send_test_with_usb_com
     0C:   00000650  A$radio_send_test_with_usb_com$1   radio_send_test_with_usb_com
     0C:   00000651  A$radio_send_test_with_usb_com$1   radio_send_test_with_usb_com
     0C:   00000653  A$radio_send_test_with_usb_com$1   radio_send_test_with_usb_com
     0C:   00000653  C$radio_send_test_with_usb_com.c   radio_send_test_with_usb_com
     0C:   00000655  A$radio_send_test_with_usb_com$1   radio_send_test_with_usb_com
     0C:   00000656  A$radio_send_test_with_usb_com$1   radio_send_test_with_usb_com
     0C:   00000658  A$radio_send_test_with_usb_com$1   radio_send_test_with_usb_com
     0C:   00000659  A$radio_send_test_with_usb_com$1   radio_send_test_with_usb_com
     0C:   0000065A  A$radio_send_test_with_usb_com$1   radio_send_test_with_usb_com
     0C:   0000065B  A$radio_send_test_with_usb_com$1   radio_send_test_with_usb_com
     0C:   0000065B  C$radio_send_test_with_usb_com.c   radio_send_test_with_usb_com
     0C:   0000065D  A$radio_send_test_with_usb_com$1   radio_send_test_with_usb_com
     0C:   0000065E  A$radio_send_test_with_usb_com$1   radio_send_test_with_usb_com
     0C:   0000065F  A$radio_send_test_with_usb_com$1   radio_send_test_with_usb_com
     0C:   00000660  A$radio_send_test_with_usb_com$1   radio_send_test_with_usb_com
     0C:   00000660  C$radio_send_test_with_usb_com.c   radio_send_test_with_usb_com
     0C:   00000662  A$radio_send_test_with_usb_com$1   radio_send_test_with_usb_com
     0C:   00000663  A$radio_send_test_with_usb_com$1   radio_send_test_with_usb_com
     0C:   00000665  A$radio_send_test_with_usb_com$1   radio_send_test_with_usb_com
     0C:   00000666  A$radio_send_test_with_usb_com$1   radio_send_test_with_usb_com
     0C:   00000666  C$radio_send_test_with_usb_com.c   radio_send_test_with_usb_com
     0C:   00000668  A$radio_send_test_with_usb_com$1   radio_send_test_with_usb_com
     0C:   00000669  A$radio_send_test_with_usb_com$1   radio_send_test_with_usb_com
     0C:   0000066B  A$radio_send_test_with_usb_com$1   radio_send_test_with_usb_com
     0C:   0000066E  A$radio_send_test_with_usb_com$1   radio_send_test_with_usb_com
     0C:   0000066E  C$radio_send_test_with_usb_com.c   radio_send_test_with_usb_com
     0C:   00000671  A$radio_send_test_with_usb_com$1   radio_send_test_with_usb_com
     0C:   00000674  A$radio_send_test_with_usb_com$1   radio_send_test_with_usb_com
     0C:   00000674  C$radio_send_test_with_usb_com.c   radio_send_test_with_usb_com
     0C:   00000677  A$radio_send_test_with_usb_com$1   radio_send_test_with_usb_com
     0C:   0000067A  A$radio_send_test_with_usb_com$1   radio_send_test_with_usb_com
     0C:   0000067D  A$radio_send_test_with_usb_com$1   radio_send_test_with_usb_com
     0C:   00000680  A$radio_send_test_with_usb_com$1   radio_send_test_with_usb_com
     0C:   00000683  A$radio_send_test_with_usb_com$1   radio_send_test_with_usb_com
     0C:   00000686  A$radio_send_test_with_usb_com$1   radio_send_test_with_usb_com
     0C:   00000689  A$radio_send_test_with_usb_com$1   radio_send_test_with_usb_com
     0C:   0000068B  A$radio_send_test_with_usb_com$1   radio_send_test_with_usb_com
     0C:   0000068E  A$radio_send_test_with_usb_com$1   radio_send_test_with_usb_com
ASxxxx Linker V02.00 + NoICE + sdld,  page 102.
Hexadecimal  [32-Bits]

Area                                    Addr        Size        Decimal Bytes (Attributes)
--------------------------------        ----        ----        ------- ----- ------------
CSEG                                00000540    00001C08 =        7176. bytes (REL,CON,CODE)

      Value  Global                              Global Defined In Module
      -----  --------------------------------   ------------------------
     0C:   00000690  A$radio_send_test_with_usb_com$1   radio_send_test_with_usb_com
     0C:   00000693  A$radio_send_test_with_usb_com$1   radio_send_test_with_usb_com
     0C:   00000695  A$radio_send_test_with_usb_com$1   radio_send_test_with_usb_com
     0C:   00000698  A$radio_send_test_with_usb_com$1   radio_send_test_with_usb_com
     0C:   00000698  C$radio_send_test_with_usb_com.c   radio_send_test_with_usb_com
     0C:   00000698  C$radio_send_test_with_usb_com.c   radio_send_test_with_usb_com
     0C:   0000069B  A$radio_send_test_with_usb_com$1   radio_send_test_with_usb_com
     0C:   0000069D  A$radio_send_test_with_usb_com$1   radio_send_test_with_usb_com
     0C:   0000069F  A$radio_send_test_with_usb_com$1   radio_send_test_with_usb_com
     0C:   000006A1  A$radio_send_test_with_usb_com$1   radio_send_test_with_usb_com
     0C:   000006A2  A$radio_send_test_with_usb_com$1   radio_send_test_with_usb_com
     0C:   000006A2  C$radio_send_test_with_usb_com.c   radio_send_test_with_usb_com
     0C:   000006A4  A$radio_send_test_with_usb_com$1   radio_send_test_with_usb_com
     0C:   000006A6  A$radio_send_test_with_usb_com$1   radio_send_test_with_usb_com
     0C:   000006A8  A$radio_send_test_with_usb_com$1   radio_send_test_with_usb_com
     0C:   000006AA  A$radio_send_test_with_usb_com$1   radio_send_test_with_usb_com
     0C:   000006AC  A$radio_send_test_with_usb_com$1   radio_send_test_with_usb_com
     0C:   000006AE  A$radio_send_test_with_usb_com$1   radio_send_test_with_usb_com
     0C:   000006B0  A$radio_send_test_with_usb_com$1   radio_send_test_with_usb_com
     0C:   000006B2  A$radio_send_test_with_usb_com$1   radio_send_test_with_usb_com
     0C:   000006B4  A$radio_send_test_with_usb_com$1   radio_send_test_with_usb_com
     0C:   000006B6  A$radio_send_test_with_usb_com$1   radio_send_test_with_usb_com
     0C:   000006B8  A$radio_send_test_with_usb_com$1   radio_send_test_with_usb_com
     0C:   000006BA  A$radio_send_test_with_usb_com$1   radio_send_test_with_usb_com
     0C:   000006BC  A$radio_send_test_with_usb_com$1   radio_send_test_with_usb_com
     0C:   000006BE  A$radio_send_test_with_usb_com$1   radio_send_test_with_usb_com
     0C:   000006C0  A$radio_send_test_with_usb_com$1   radio_send_test_with_usb_com
     0C:   000006C2  A$radio_send_test_with_usb_com$1   radio_send_test_with_usb_com
     0C:   000006C4  A$radio_send_test_with_usb_com$1   radio_send_test_with_usb_com
     0C:   000006C6  A$radio_send_test_with_usb_com$1   radio_send_test_with_usb_com
     0C:   000006C7  A$radio_send_test_with_usb_com$1   radio_send_test_with_usb_com
     0C:   000006C9  A$radio_send_test_with_usb_com$1   radio_send_test_with_usb_com
     0C:   000006CC  A$radio_send_test_with_usb_com$1   radio_send_test_with_usb_com
     0C:   000006CE  A$radio_send_test_with_usb_com$1   radio_send_test_with_usb_com
     0C:   000006D0  A$radio_send_test_with_usb_com$1   radio_send_test_with_usb_com
     0C:   000006D2  A$radio_send_test_with_usb_com$1   radio_send_test_with_usb_com
     0C:   000006D4  A$radio_send_test_with_usb_com$1   radio_send_test_with_usb_com
     0C:   000006D4  C$radio_send_test_with_usb_com.c   radio_send_test_with_usb_com
     0C:   000006D6  A$radio_send_test_with_usb_com$1   radio_send_test_with_usb_com
     0C:   000006D7  A$radio_send_test_with_usb_com$1   radio_send_test_with_usb_com
     0C:   000006D8  A$radio_send_test_with_usb_com$1   radio_send_test_with_usb_com
     0C:   000006DB  A$radio_send_test_with_usb_com$1   radio_send_test_with_usb_com
     0C:   000006DE  A$radio_send_test_with_usb_com$1   radio_send_test_with_usb_com
     0C:   000006DE  C$radio_send_test_with_usb_com.c   radio_send_test_with_usb_com
     0C:   000006E1  A$radio_send_test_with_usb_com$1   radio_send_test_with_usb_com
     0C:   000006E1  C$radio_send_test_with_usb_com.c   radio_send_test_with_usb_com
     0C:   000006E1  C$radio_send_test_with_usb_com.c   radio_send_test_with_usb_com
     0C:   000006E3  A$radio_send_test_with_usb_com$1   radio_send_test_with_usb_com
     0C:   000006E4  A$radio_send_test_with_usb_com$1   radio_send_test_with_usb_com
     0C:   000006E5  A$radio_send_test_with_usb_com$1   radio_send_test_with_usb_com
     0C:   000006E7  A$radio_send_test_with_usb_com$1   radio_send_test_with_usb_com
ASxxxx Linker V02.00 + NoICE + sdld,  page 103.
Hexadecimal  [32-Bits]

Area                                    Addr        Size        Decimal Bytes (Attributes)
--------------------------------        ----        ----        ------- ----- ------------
CSEG                                00000540    00001C08 =        7176. bytes (REL,CON,CODE)

      Value  Global                              Global Defined In Module
      -----  --------------------------------   ------------------------
     0C:   000006E8  A$radio_send_test_with_usb_com$1   radio_send_test_with_usb_com
     0C:   000006EA  A$radio_send_test_with_usb_com$1   radio_send_test_with_usb_com
     0C:   000006EC  A$radio_send_test_with_usb_com$1   radio_send_test_with_usb_com
     0C:   000006EC  C$radio_send_test_with_usb_com.c   radio_send_test_with_usb_com
     0C:   000006EF  A$radio_send_test_with_usb_com$1   radio_send_test_with_usb_com
     0C:   000006EF  C$radio_send_test_with_usb_com.c   radio_send_test_with_usb_com
     0C:   000006EF  C$radio_send_test_with_usb_com.c   radio_send_test_with_usb_com
     0C:   000006F2  A$radio_send_test_with_usb_com$1   radio_send_test_with_usb_com
     0C:   000006F3  A$radio_send_test_with_usb_com$1   radio_send_test_with_usb_com
     0C:   000006F4  A$radio_send_test_with_usb_com$1   radio_send_test_with_usb_com
     0C:   000006F5  A$radio_send_test_with_usb_com$1   radio_send_test_with_usb_com
     0C:   000006F7  A$radio_send_test_with_usb_com$1   radio_send_test_with_usb_com
     0C:   000006F8  A$radio_send_test_with_usb_com$1   radio_send_test_with_usb_com
     0C:   000006F9  A$radio_send_test_with_usb_com$1   radio_send_test_with_usb_com
     0C:   000006FB  A$radio_send_test_with_usb_com$1   radio_send_test_with_usb_com
     0C:   000006FC  A$radio_send_test_with_usb_com$1   radio_send_test_with_usb_com
     0C:   000006FD  A$radio_send_test_with_usb_com$1   radio_send_test_with_usb_com
     0C:   000006FF  A$radio_send_test_with_usb_com$1   radio_send_test_with_usb_com
     0C:   00000700  A$radio_send_test_with_usb_com$1   radio_send_test_with_usb_com
     0C:   00000701  A$radio_send_test_with_usb_com$1   radio_send_test_with_usb_com
     0C:   00000704  A$radio_send_test_with_usb_com$1   radio_send_test_with_usb_com
     0C:   00000707  A$radio_send_test_with_usb_com$1   radio_send_test_with_usb_com
     0C:   0000070A  A$radio_send_test_with_usb_com$1   radio_send_test_with_usb_com
     0C:   0000070D  A$radio_send_test_with_usb_com$1   radio_send_test_with_usb_com
     0C:   0000070D  C$radio_send_test_with_usb_com.c   radio_send_test_with_usb_com
     0C:   0000070F  A$radio_send_test_with_usb_com$1   radio_send_test_with_usb_com
     0C:   00000710  A$radio_send_test_with_usb_com$1   radio_send_test_with_usb_com
     0C:   00000711  A$radio_send_test_with_usb_com$1   radio_send_test_with_usb_com
     0C:   00000712  A$radio_send_test_with_usb_com$1   radio_send_test_with_usb_com
     0C:   00000713  A$radio_send_test_with_usb_com$1   radio_send_test_with_usb_com
     0C:   00000715  A$radio_send_test_with_usb_com$1   radio_send_test_with_usb_com
     0C:   00000715  C$radio_send_test_with_usb_com.c   radio_send_test_with_usb_com
     0C:   00000717  A$radio_send_test_with_usb_com$1   radio_send_test_with_usb_com
     0C:   00000719  A$radio_send_test_with_usb_com$1   radio_send_test_with_usb_com
     0C:   0000071A  A$radio_send_test_with_usb_com$1   radio_send_test_with_usb_com
     0C:   0000071B  A$radio_send_test_with_usb_com$1   radio_send_test_with_usb_com
     0C:   0000071D  A$radio_send_test_with_usb_com$1   radio_send_test_with_usb_com
     0C:   0000071E  A$radio_send_test_with_usb_com$1   radio_send_test_with_usb_com
     0C:   00000720  A$radio_send_test_with_usb_com$1   radio_send_test_with_usb_com
     0C:   00000722  A$radio_send_test_with_usb_com$1   radio_send_test_with_usb_com
     0C:   00000723  A$radio_send_test_with_usb_com$1   radio_send_test_with_usb_com
     0C:   00000724  A$radio_send_test_with_usb_com$1   radio_send_test_with_usb_com
     0C:   00000726  A$radio_send_test_with_usb_com$1   radio_send_test_with_usb_com
     0C:   00000727  A$radio_send_test_with_usb_com$1   radio_send_test_with_usb_com
     0C:   00000729  A$radio_send_test_with_usb_com$1   radio_send_test_with_usb_com
     0C:   0000072B  A$radio_send_test_with_usb_com$1   radio_send_test_with_usb_com
     0C:   0000072D  A$radio_send_test_with_usb_com$1   radio_send_test_with_usb_com
     0C:   0000072D  C$radio_send_test_with_usb_com.c   radio_send_test_with_usb_com
     0C:   0000072F  A$radio_send_test_with_usb_com$1   radio_send_test_with_usb_com
     0C:   00000731  A$radio_send_test_with_usb_com$1   radio_send_test_with_usb_com
     0C:   00000734  A$radio_send_test_with_usb_com$1   radio_send_test_with_usb_com
ASxxxx Linker V02.00 + NoICE + sdld,  page 104.
Hexadecimal  [32-Bits]

Area                                    Addr        Size        Decimal Bytes (Attributes)
--------------------------------        ----        ----        ------- ----- ------------
CSEG                                00000540    00001C08 =        7176. bytes (REL,CON,CODE)

      Value  Global                              Global Defined In Module
      -----  --------------------------------   ------------------------
     0C:   00000736  A$radio_send_test_with_usb_com$1   radio_send_test_with_usb_com
     0C:   00000739  A$radio_send_test_with_usb_com$1   radio_send_test_with_usb_com
     0C:   0000073B  A$radio_send_test_with_usb_com$1   radio_send_test_with_usb_com
     0C:   0000073D  A$radio_send_test_with_usb_com$1   radio_send_test_with_usb_com
     0C:   0000073F  A$radio_send_test_with_usb_com$1   radio_send_test_with_usb_com
     0C:   00000741  A$radio_send_test_with_usb_com$1   radio_send_test_with_usb_com
     0C:   00000742  A$radio_send_test_with_usb_com$1   radio_send_test_with_usb_com
     0C:   00000745  A$radio_send_test_with_usb_com$1   radio_send_test_with_usb_com
     0C:   00000746  A$radio_send_test_with_usb_com$1   radio_send_test_with_usb_com
     0C:   00000746  C$radio_send_test_with_usb_com.c   radio_send_test_with_usb_com
     0C:   00000747  A$radio_send_test_with_usb_com$1   radio_send_test_with_usb_com
     0C:   0000074A  A$radio_send_test_with_usb_com$1   radio_send_test_with_usb_com
     0C:   0000074B  A$radio_send_test_with_usb_com$1   radio_send_test_with_usb_com
     0C:   0000074D  A$radio_send_test_with_usb_com$1   radio_send_test_with_usb_com
     0C:   0000074D  C$radio_send_test_with_usb_com.c   radio_send_test_with_usb_com
     0C:   0000074F  A$radio_send_test_with_usb_com$1   radio_send_test_with_usb_com
     0C:   00000751  A$radio_send_test_with_usb_com$1   radio_send_test_with_usb_com
     0C:   00000753  A$radio_send_test_with_usb_com$1   radio_send_test_with_usb_com
     0C:   00000755  A$radio_send_test_with_usb_com$1   radio_send_test_with_usb_com
     0C:   00000757  A$radio_send_test_with_usb_com$1   radio_send_test_with_usb_com
     0C:   00000759  A$radio_send_test_with_usb_com$1   radio_send_test_with_usb_com
     0C:   0000075B  A$radio_send_test_with_usb_com$1   radio_send_test_with_usb_com
     0C:   0000075D  A$radio_send_test_with_usb_com$1   radio_send_test_with_usb_com
     0C:   0000075F  A$radio_send_test_with_usb_com$1   radio_send_test_with_usb_com
     0C:   00000761  A$radio_send_test_with_usb_com$1   radio_send_test_with_usb_com
     0C:   00000762  A$radio_send_test_with_usb_com$1   radio_send_test_with_usb_com
     0C:   00000764  A$radio_send_test_with_usb_com$1   radio_send_test_with_usb_com
     0C:   00000767  A$radio_send_test_with_usb_com$1   radio_send_test_with_usb_com
     0C:   00000769  A$radio_send_test_with_usb_com$1   radio_send_test_with_usb_com
     0C:   0000076B  A$radio_send_test_with_usb_com$1   radio_send_test_with_usb_com
     0C:   0000076D  A$radio_send_test_with_usb_com$1   radio_send_test_with_usb_com
     0C:   0000076F  A$radio_send_test_with_usb_com$1   radio_send_test_with_usb_com
     0C:   00000771  A$radio_send_test_with_usb_com$1   radio_send_test_with_usb_com
     0C:   00000771  C$radio_send_test_with_usb_com.c   radio_send_test_with_usb_com
     0C:   00000773  A$radio_send_test_with_usb_com$1   radio_send_test_with_usb_com
     0C:   00000774  A$radio_send_test_with_usb_com$1   radio_send_test_with_usb_com
     0C:   00000775  A$radio_send_test_with_usb_com$1   radio_send_test_with_usb_com
     0C:   00000778  A$radio_send_test_with_usb_com$1   radio_send_test_with_usb_com
     0C:   0000077B  A$radio_send_test_with_usb_com$1   radio_send_test_with_usb_com
     0C:   0000077B  C$radio_send_test_with_usb_com.c   radio_send_test_with_usb_com
     0C:   0000077E  A$radio_send_test_with_usb_com$1   radio_send_test_with_usb_com
     0C:   0000077E  C$radio_send_test_with_usb_com.c   radio_send_test_with_usb_com
     0C:   0000077E  C$radio_send_test_with_usb_com.c   radio_send_test_with_usb_com
     0C:   00000780  A$radio_send_test_with_usb_com$1   radio_send_test_with_usb_com
     0C:   00000781  A$radio_send_test_with_usb_com$1   radio_send_test_with_usb_com
     0C:   00000782  A$radio_send_test_with_usb_com$1   radio_send_test_with_usb_com
     0C:   00000783  A$radio_send_test_with_usb_com$1   radio_send_test_with_usb_com
     0C:   00000784  A$radio_send_test_with_usb_com$1   radio_send_test_with_usb_com
     0C:   00000784  C$radio_send_test_with_usb_com.c   radio_send_test_with_usb_com
     0C:   00000787  A$radio_send_test_with_usb_com$1   radio_send_test_with_usb_com
     0C:   0000078A  A$radio_send_test_with_usb_com$1   radio_send_test_with_usb_com
ASxxxx Linker V02.00 + NoICE + sdld,  page 105.
Hexadecimal  [32-Bits]

Area                                    Addr        Size        Decimal Bytes (Attributes)
--------------------------------        ----        ----        ------- ----- ------------
CSEG                                00000540    00001C08 =        7176. bytes (REL,CON,CODE)

      Value  Global                              Global Defined In Module
      -----  --------------------------------   ------------------------
     0C:   0000078C  A$radio_send_test_with_usb_com$1   radio_send_test_with_usb_com
     0C:   0000078E  A$radio_send_test_with_usb_com$1   radio_send_test_with_usb_com
     0C:   0000078F  A$radio_send_test_with_usb_com$1   radio_send_test_with_usb_com
     0C:   00000790  A$radio_send_test_with_usb_com$1   radio_send_test_with_usb_com
     0C:   00000792  A$radio_send_test_with_usb_com$1   radio_send_test_with_usb_com
     0C:   00000793  A$radio_send_test_with_usb_com$1   radio_send_test_with_usb_com
     0C:   00000795  A$radio_send_test_with_usb_com$1   radio_send_test_with_usb_com
     0C:   00000797  A$radio_send_test_with_usb_com$1   radio_send_test_with_usb_com
     0C:   00000799  A$radio_send_test_with_usb_com$1   radio_send_test_with_usb_com
     0C:   00000799  C$radio_send_test_with_usb_com.c   radio_send_test_with_usb_com
     0C:   0000079B  A$radio_send_test_with_usb_com$1   radio_send_test_with_usb_com
     0C:   0000079D  A$radio_send_test_with_usb_com$1   radio_send_test_with_usb_com
     0C:   000007A0  A$radio_send_test_with_usb_com$1   radio_send_test_with_usb_com
     0C:   000007A2  A$radio_send_test_with_usb_com$1   radio_send_test_with_usb_com
     0C:   000007A5  A$radio_send_test_with_usb_com$1   radio_send_test_with_usb_com
     0C:   000007A7  A$radio_send_test_with_usb_com$1   radio_send_test_with_usb_com
     0C:   000007A9  A$radio_send_test_with_usb_com$1   radio_send_test_with_usb_com
     0C:   000007AB  A$radio_send_test_with_usb_com$1   radio_send_test_with_usb_com
     0C:   000007AD  A$radio_send_test_with_usb_com$1   radio_send_test_with_usb_com
     0C:   000007AE  A$radio_send_test_with_usb_com$1   radio_send_test_with_usb_com
     0C:   000007B1  A$radio_send_test_with_usb_com$1   radio_send_test_with_usb_com
     0C:   000007B2  A$radio_send_test_with_usb_com$1   radio_send_test_with_usb_com
     0C:   000007B2  C$radio_send_test_with_usb_com.c   radio_send_test_with_usb_com
     0C:   000007B3  A$radio_send_test_with_usb_com$1   radio_send_test_with_usb_com
     0C:   000007B6  A$radio_send_test_with_usb_com$1   radio_send_test_with_usb_com
     0C:   000007B7  A$radio_send_test_with_usb_com$1   radio_send_test_with_usb_com
     0C:   000007B9  A$radio_send_test_with_usb_com$1   radio_send_test_with_usb_com
     0C:   000007B9  C$radio_send_test_with_usb_com.c   radio_send_test_with_usb_com
     0C:   000007BB  A$radio_send_test_with_usb_com$1   radio_send_test_with_usb_com
     0C:   000007BC  A$radio_send_test_with_usb_com$1   radio_send_test_with_usb_com
     0C:   000007BD  A$radio_send_test_with_usb_com$1   radio_send_test_with_usb_com
     0C:   000007BE  A$radio_send_test_with_usb_com$1   radio_send_test_with_usb_com
     0C:   000007BF  A$radio_send_test_with_usb_com$1   radio_send_test_with_usb_com
     0C:   000007BF  C$radio_send_test_with_usb_com.c   radio_send_test_with_usb_com
     0C:   000007C2  A$radio_send_test_with_usb_com$1   radio_send_test_with_usb_com
     0C:   000007C5  A$radio_send_test_with_usb_com$1   radio_send_test_with_usb_com
     0C:   000007C7  A$radio_send_test_with_usb_com$1   radio_send_test_with_usb_com
     0C:   000007C9  A$radio_send_test_with_usb_com$1   radio_send_test_with_usb_com
     0C:   000007CA  A$radio_send_test_with_usb_com$1   radio_send_test_with_usb_com
     0C:   000007CB  A$radio_send_test_with_usb_com$1   radio_send_test_with_usb_com
     0C:   000007CD  A$radio_send_test_with_usb_com$1   radio_send_test_with_usb_com
     0C:   000007CE  A$radio_send_test_with_usb_com$1   radio_send_test_with_usb_com
     0C:   000007D0  A$radio_send_test_with_usb_com$1   radio_send_test_with_usb_com
     0C:   000007D2  A$radio_send_test_with_usb_com$1   radio_send_test_with_usb_com
     0C:   000007D4  A$radio_send_test_with_usb_com$1   radio_send_test_with_usb_com
     0C:   000007D4  C$radio_send_test_with_usb_com.c   radio_send_test_with_usb_com
     0C:   000007D6  A$radio_send_test_with_usb_com$1   radio_send_test_with_usb_com
     0C:   000007D8  A$radio_send_test_with_usb_com$1   radio_send_test_with_usb_com
     0C:   000007DB  A$radio_send_test_with_usb_com$1   radio_send_test_with_usb_com
     0C:   000007DD  A$radio_send_test_with_usb_com$1   radio_send_test_with_usb_com
     0C:   000007E0  A$radio_send_test_with_usb_com$1   radio_send_test_with_usb_com
ASxxxx Linker V02.00 + NoICE + sdld,  page 106.
Hexadecimal  [32-Bits]

Area                                    Addr        Size        Decimal Bytes (Attributes)
--------------------------------        ----        ----        ------- ----- ------------
CSEG                                00000540    00001C08 =        7176. bytes (REL,CON,CODE)

      Value  Global                              Global Defined In Module
      -----  --------------------------------   ------------------------
     0C:   000007E2  A$radio_send_test_with_usb_com$1   radio_send_test_with_usb_com
     0C:   000007E4  A$radio_send_test_with_usb_com$1   radio_send_test_with_usb_com
     0C:   000007E6  A$radio_send_test_with_usb_com$1   radio_send_test_with_usb_com
     0C:   000007E8  A$radio_send_test_with_usb_com$1   radio_send_test_with_usb_com
     0C:   000007E9  A$radio_send_test_with_usb_com$1   radio_send_test_with_usb_com
     0C:   000007EC  A$radio_send_test_with_usb_com$1   radio_send_test_with_usb_com
     0C:   000007ED  A$radio_send_test_with_usb_com$1   radio_send_test_with_usb_com
     0C:   000007ED  C$radio_send_test_with_usb_com.c   radio_send_test_with_usb_com
     0C:   000007EE  A$radio_send_test_with_usb_com$1   radio_send_test_with_usb_com
     0C:   000007F1  A$radio_send_test_with_usb_com$1   radio_send_test_with_usb_com
     0C:   000007F2  A$radio_send_test_with_usb_com$1   radio_send_test_with_usb_com
     0C:   000007F4  A$radio_send_test_with_usb_com$1   radio_send_test_with_usb_com
     0C:   000007F4  C$radio_send_test_with_usb_com.c   radio_send_test_with_usb_com
     0C:   000007F6  A$radio_send_test_with_usb_com$1   radio_send_test_with_usb_com
     0C:   000007F8  A$radio_send_test_with_usb_com$1   radio_send_test_with_usb_com
     0C:   000007FA  A$radio_send_test_with_usb_com$1   radio_send_test_with_usb_com
     0C:   000007FC  A$radio_send_test_with_usb_com$1   radio_send_test_with_usb_com
     0C:   000007FE  A$radio_send_test_with_usb_com$1   radio_send_test_with_usb_com
     0C:   00000800  A$radio_send_test_with_usb_com$1   radio_send_test_with_usb_com
     0C:   00000802  A$radio_send_test_with_usb_com$1   radio_send_test_with_usb_com
     0C:   00000804  A$radio_send_test_with_usb_com$1   radio_send_test_with_usb_com
     0C:   00000806  A$radio_send_test_with_usb_com$1   radio_send_test_with_usb_com
     0C:   00000808  A$radio_send_test_with_usb_com$1   radio_send_test_with_usb_com
     0C:   00000809  A$radio_send_test_with_usb_com$1   radio_send_test_with_usb_com
     0C:   0000080B  A$radio_send_test_with_usb_com$1   radio_send_test_with_usb_com
     0C:   0000080E  A$radio_send_test_with_usb_com$1   radio_send_test_with_usb_com
     0C:   00000810  A$radio_send_test_with_usb_com$1   radio_send_test_with_usb_com
     0C:   00000812  A$radio_send_test_with_usb_com$1   radio_send_test_with_usb_com
     0C:   00000814  A$radio_send_test_with_usb_com$1   radio_send_test_with_usb_com
     0C:   00000816  A$radio_send_test_with_usb_com$1   radio_send_test_with_usb_com
     0C:   00000818  A$radio_send_test_with_usb_com$1   radio_send_test_with_usb_com
     0C:   00000819  A$radio_send_test_with_usb_com$1   radio_send_test_with_usb_com
     0C:   0000081A  A$radio_send_test_with_usb_com$1   radio_send_test_with_usb_com
     0C:   0000081A  C$radio_send_test_with_usb_com.c   radio_send_test_with_usb_com
     0C:   0000081D  A$radio_send_test_with_usb_com$1   radio_send_test_with_usb_com
     0C:   00000820  A$radio_send_test_with_usb_com$1   radio_send_test_with_usb_com
     0C:   00000820  C$radio_send_test_with_usb_com.c   radio_send_test_with_usb_com
     0C:   00000820  C$radio_send_test_with_usb_com.c   radio_send_test_with_usb_com
     0C:   00000822  A$radio_send_test_with_usb_com$1   radio_send_test_with_usb_com
     0C:   00000822  C$radio_send_test_with_usb_com.c   radio_send_test_with_usb_com
     0C:   00000824  A$radio_send_test_with_usb_com$1   radio_send_test_with_usb_com
     0C:   00000826  A$radio_send_test_with_usb_com$1   radio_send_test_with_usb_com
     0C:   00000827  A$radio_send_test_with_usb_com$1   radio_send_test_with_usb_com
     0C:   00000827  C$radio_send_test_with_usb_com.c   radio_send_test_with_usb_com
     0C:   00000827  C$radio_send_test_with_usb_com.c   radio_send_test_with_usb_com
     0C:   00000829  A$radio_send_test_with_usb_com$1   radio_send_test_with_usb_com
     0C:   00000829  C$radio_send_test_with_usb_com.c   radio_send_test_with_usb_com
     0C:   0000082B  A$radio_send_test_with_usb_com$1   radio_send_test_with_usb_com
     0C:   0000082C  A$radio_send_test_with_usb_com$1   radio_send_test_with_usb_com
     0C:   0000082D  A$radio_send_test_with_usb_com$1   radio_send_test_with_usb_com
     0C:   0000082D  C$radio_send_test_with_usb_com.c   radio_send_test_with_usb_com
ASxxxx Linker V02.00 + NoICE + sdld,  page 107.
Hexadecimal  [32-Bits]

Area                                    Addr        Size        Decimal Bytes (Attributes)
--------------------------------        ----        ----        ------- ----- ------------
CSEG                                00000540    00001C08 =        7176. bytes (REL,CON,CODE)

      Value  Global                              Global Defined In Module
      -----  --------------------------------   ------------------------
     0C:   0000082D  C$radio_send_test_with_usb_com.c   radio_send_test_with_usb_com
     0C:   0000082D  XG$processByte$0$0                 radio_send_test_with_usb_com
     0C:   0000082E  A$radio_send_test_with_usb_com$1   radio_send_test_with_usb_com
     0C:   0000082E  C$radio_send_test_with_usb_com.c   radio_send_test_with_usb_com
     0C:   0000082E  C$radio_send_test_with_usb_com.c   radio_send_test_with_usb_com
     0C:   0000082E  G$processBytesFromUsb$0$0          radio_send_test_with_usb_com
     0C:   0000082E  _processBytesFromUsb               radio_send_test_with_usb_com
     0C:   00000831  A$radio_send_test_with_usb_com$1   radio_send_test_with_usb_com
     0C:   00000833  A$radio_send_test_with_usb_com$1   radio_send_test_with_usb_com
     0C:   00000833  C$radio_send_test_with_usb_com.c   radio_send_test_with_usb_com
     0C:   00000834  A$radio_send_test_with_usb_com$1   radio_send_test_with_usb_com
     0C:   00000836  A$radio_send_test_with_usb_com$1   radio_send_test_with_usb_com
     0C:   00000838  A$radio_send_test_with_usb_com$1   radio_send_test_with_usb_com
     0C:   0000083B  A$radio_send_test_with_usb_com$1   radio_send_test_with_usb_com
     0C:   0000083D  A$radio_send_test_with_usb_com$1   radio_send_test_with_usb_com
     0C:   0000083F  A$radio_send_test_with_usb_com$1   radio_send_test_with_usb_com
     0C:   00000842  A$radio_send_test_with_usb_com$1   radio_send_test_with_usb_com
     0C:   00000844  A$radio_send_test_with_usb_com$1   radio_send_test_with_usb_com
     0C:   00000844  C$radio_send_test_with_usb_com.c   radio_send_test_with_usb_com
     0C:   00000846  A$radio_send_test_with_usb_com$1   radio_send_test_with_usb_com
     0C:   00000849  A$radio_send_test_with_usb_com$1   radio_send_test_with_usb_com
     0C:   0000084C  A$radio_send_test_with_usb_com$1   radio_send_test_with_usb_com
     0C:   0000084E  A$radio_send_test_with_usb_com$1   radio_send_test_with_usb_com
     0C:   0000084E  C$radio_send_test_with_usb_com.c   radio_send_test_with_usb_com
     0C:   0000084F  A$radio_send_test_with_usb_com$1   radio_send_test_with_usb_com
     0C:   00000851  A$radio_send_test_with_usb_com$1   radio_send_test_with_usb_com
     0C:   00000851  C$radio_send_test_with_usb_com.c   radio_send_test_with_usb_com
     0C:   00000851  XG$processBytesFromUsb$0$0         radio_send_test_with_usb_com
     0C:   00000852  A$radio_send_test_with_usb_com$1   radio_send_test_with_usb_com
     0C:   00000852  C$radio_send_test_with_usb_com.c   radio_send_test_with_usb_com
     0C:   00000852  C$radio_send_test_with_usb_com.c   radio_send_test_with_usb_com
     0C:   00000852  G$main$0$0                         radio_send_test_with_usb_com
     0C:   00000852  _main                              radio_send_test_with_usb_com
     0C:   00000855  A$radio_send_test_with_usb_com$1   radio_send_test_with_usb_com
     0C:   00000855  C$radio_send_test_with_usb_com.c   radio_send_test_with_usb_com
     0C:   00000858  A$radio_send_test_with_usb_com$1   radio_send_test_with_usb_com
     0C:   00000858  C$radio_send_test_with_usb_com.c   radio_send_test_with_usb_com
     0C:   0000085B  A$radio_send_test_with_usb_com$1   radio_send_test_with_usb_com
     0C:   0000085B  C$radio_send_test_with_usb_com.c   radio_send_test_with_usb_com
     0C:   0000085B  C$radio_send_test_with_usb_com.c   radio_send_test_with_usb_com
     0C:   0000085E  A$radio_send_test_with_usb_com$1   radio_send_test_with_usb_com
     0C:   0000085E  C$radio_send_test_with_usb_com.c   radio_send_test_with_usb_com
     0C:   00000861  A$radio_send_test_with_usb_com$1   radio_send_test_with_usb_com
     0C:   00000861  C$radio_send_test_with_usb_com.c   radio_send_test_with_usb_com
     0C:   00000864  A$radio_send_test_with_usb_com$1   radio_send_test_with_usb_com
     0C:   00000864  C$radio_send_test_with_usb_com.c   radio_send_test_with_usb_com
     0C:   00000867  A$radio_send_test_with_usb_com$1   radio_send_test_with_usb_com
     0C:   00000867  C$radio_send_test_with_usb_com.c   radio_send_test_with_usb_com
     0C:   00000869  A$radio_send_test_with_usb_com$1   radio_send_test_with_usb_com
     0C:   0000086A  A$radio_send_test_with_usb_com$1   radio_send_test_with_usb_com
     0C:   0000086D  A$radio_send_test_with_usb_com$1   radio_send_test_with_usb_com
ASxxxx Linker V02.00 + NoICE + sdld,  page 108.
Hexadecimal  [32-Bits]

Area                                    Addr        Size        Decimal Bytes (Attributes)
--------------------------------        ----        ----        ------- ----- ------------
CSEG                                00000540    00001C08 =        7176. bytes (REL,CON,CODE)

      Value  Global                              Global Defined In Module
      -----  --------------------------------   ------------------------
     0C:   0000086D  C$radio_send_test_with_usb_com.c   radio_send_test_with_usb_com
     0C:   0000086F  A$radio_send_test_with_usb_com$1   radio_send_test_with_usb_com
     0C:   00000870  A$radio_send_test_with_usb_com$1   radio_send_test_with_usb_com
     0C:   00000872  A$radio_send_test_with_usb_com$1   radio_send_test_with_usb_com
     0C:   00000873  A$radio_send_test_with_usb_com$1   radio_send_test_with_usb_com
     0C:   00000873  C$radio_send_test_with_usb_com.c   radio_send_test_with_usb_com
     0C:   00000876  A$radio_send_test_with_usb_com$1   radio_send_test_with_usb_com
     0C:   00000877  A$radio_send_test_with_usb_com$1   radio_send_test_with_usb_com
     0C:   00000878  A$radio_send_test_with_usb_com$1   radio_send_test_with_usb_com
     0C:   00000879  A$radio_send_test_with_usb_com$1   radio_send_test_with_usb_com
     0C:   0000087B  A$radio_send_test_with_usb_com$1   radio_send_test_with_usb_com
     0C:   0000087C  A$radio_send_test_with_usb_com$1   radio_send_test_with_usb_com
     0C:   0000087D  A$radio_send_test_with_usb_com$1   radio_send_test_with_usb_com
     0C:   0000087F  A$radio_send_test_with_usb_com$1   radio_send_test_with_usb_com
     0C:   00000880  A$radio_send_test_with_usb_com$1   radio_send_test_with_usb_com
     0C:   00000881  A$radio_send_test_with_usb_com$1   radio_send_test_with_usb_com
     0C:   00000883  A$radio_send_test_with_usb_com$1   radio_send_test_with_usb_com
     0C:   00000884  A$radio_send_test_with_usb_com$1   radio_send_test_with_usb_com
     0C:   00000885  A$radio_send_test_with_usb_com$1   radio_send_test_with_usb_com
     0C:   00000888  A$radio_send_test_with_usb_com$1   radio_send_test_with_usb_com
     0C:   0000088B  A$radio_send_test_with_usb_com$1   radio_send_test_with_usb_com
     0C:   0000088E  A$radio_send_test_with_usb_com$1   radio_send_test_with_usb_com
     0C:   00000891  A$radio_send_test_with_usb_com$1   radio_send_test_with_usb_com
     0C:   00000891  C$radio_send_test_with_usb_com.c   radio_send_test_with_usb_com
     0C:   00000893  A$radio_send_test_with_usb_com$1   radio_send_test_with_usb_com
     0C:   00000894  A$radio_send_test_with_usb_com$1   radio_send_test_with_usb_com
     0C:   00000895  A$radio_send_test_with_usb_com$1   radio_send_test_with_usb_com
     0C:   00000896  A$radio_send_test_with_usb_com$1   radio_send_test_with_usb_com
     0C:   00000897  A$radio_send_test_with_usb_com$1   radio_send_test_with_usb_com
     0C:   00000899  A$radio_send_test_with_usb_com$1   radio_send_test_with_usb_com
     0C:   00000899  C$radio_send_test_with_usb_com.c   radio_send_test_with_usb_com
     0C:   0000089B  A$radio_send_test_with_usb_com$1   radio_send_test_with_usb_com
     0C:   0000089D  A$radio_send_test_with_usb_com$1   radio_send_test_with_usb_com
     0C:   0000089E  A$radio_send_test_with_usb_com$1   radio_send_test_with_usb_com
     0C:   0000089F  A$radio_send_test_with_usb_com$1   radio_send_test_with_usb_com
     0C:   000008A1  A$radio_send_test_with_usb_com$1   radio_send_test_with_usb_com
     0C:   000008A2  A$radio_send_test_with_usb_com$1   radio_send_test_with_usb_com
     0C:   000008A4  A$radio_send_test_with_usb_com$1   radio_send_test_with_usb_com
     0C:   000008A6  A$radio_send_test_with_usb_com$1   radio_send_test_with_usb_com
     0C:   000008A7  A$radio_send_test_with_usb_com$1   radio_send_test_with_usb_com
     0C:   000008A8  A$radio_send_test_with_usb_com$1   radio_send_test_with_usb_com
     0C:   000008AA  A$radio_send_test_with_usb_com$1   radio_send_test_with_usb_com
     0C:   000008AB  A$radio_send_test_with_usb_com$1   radio_send_test_with_usb_com
     0C:   000008AD  A$radio_send_test_with_usb_com$1   radio_send_test_with_usb_com
     0C:   000008AF  A$radio_send_test_with_usb_com$1   radio_send_test_with_usb_com
     0C:   000008B1  A$radio_send_test_with_usb_com$1   radio_send_test_with_usb_com
     0C:   000008B1  C$radio_send_test_with_usb_com.c   radio_send_test_with_usb_com
     0C:   000008B3  A$radio_send_test_with_usb_com$1   radio_send_test_with_usb_com
     0C:   000008B5  A$radio_send_test_with_usb_com$1   radio_send_test_with_usb_com
     0C:   000008B8  A$radio_send_test_with_usb_com$1   radio_send_test_with_usb_com
     0C:   000008BA  A$radio_send_test_with_usb_com$1   radio_send_test_with_usb_com
ASxxxx Linker V02.00 + NoICE + sdld,  page 109.
Hexadecimal  [32-Bits]

Area                                    Addr        Size        Decimal Bytes (Attributes)
--------------------------------        ----        ----        ------- ----- ------------
CSEG                                00000540    00001C08 =        7176. bytes (REL,CON,CODE)

      Value  Global                              Global Defined In Module
      -----  --------------------------------   ------------------------
     0C:   000008BD  A$radio_send_test_with_usb_com$1   radio_send_test_with_usb_com
     0C:   000008BF  A$radio_send_test_with_usb_com$1   radio_send_test_with_usb_com
     0C:   000008C1  A$radio_send_test_with_usb_com$1   radio_send_test_with_usb_com
     0C:   000008C3  A$radio_send_test_with_usb_com$1   radio_send_test_with_usb_com
     0C:   000008C5  A$radio_send_test_with_usb_com$1   radio_send_test_with_usb_com
     0C:   000008C6  A$radio_send_test_with_usb_com$1   radio_send_test_with_usb_com
     0C:   000008C9  A$radio_send_test_with_usb_com$1   radio_send_test_with_usb_com
     0C:   000008CA  A$radio_send_test_with_usb_com$1   radio_send_test_with_usb_com
     0C:   000008CA  C$radio_send_test_with_usb_com.c   radio_send_test_with_usb_com
     0C:   000008CB  A$radio_send_test_with_usb_com$1   radio_send_test_with_usb_com
     0C:   000008CE  A$radio_send_test_with_usb_com$1   radio_send_test_with_usb_com
     0C:   000008CF  A$radio_send_test_with_usb_com$1   radio_send_test_with_usb_com
     0C:   000008D1  A$radio_send_test_with_usb_com$1   radio_send_test_with_usb_com
     0C:   000008D1  C$radio_send_test_with_usb_com.c   radio_send_test_with_usb_com
     0C:   000008D3  A$radio_send_test_with_usb_com$1   radio_send_test_with_usb_com
     0C:   000008D4  A$radio_send_test_with_usb_com$1   radio_send_test_with_usb_com
     0C:   000008D5  A$radio_send_test_with_usb_com$1   radio_send_test_with_usb_com
     0C:   000008D7  A$radio_send_test_with_usb_com$1   radio_send_test_with_usb_com
     0C:   000008D9  A$radio_send_test_with_usb_com$1   radio_send_test_with_usb_com
     0C:   000008DB  A$radio_send_test_with_usb_com$1   radio_send_test_with_usb_com
     0C:   000008DD  A$radio_send_test_with_usb_com$1   radio_send_test_with_usb_com
     0C:   000008E0  A$radio_send_test_with_usb_com$1   radio_send_test_with_usb_com
     0C:   000008E0  C$radio_send_test_with_usb_com.c   radio_send_test_with_usb_com
     0C:   000008E2  A$radio_send_test_with_usb_com$1   radio_send_test_with_usb_com
     0C:   000008E3  A$radio_send_test_with_usb_com$1   radio_send_test_with_usb_com
     0C:   000008E4  A$radio_send_test_with_usb_com$1   radio_send_test_with_usb_com
     0C:   000008E4  C$radio_send_test_with_usb_com.c   radio_send_test_with_usb_com
     0C:   000008E6  A$radio_send_test_with_usb_com$1   radio_send_test_with_usb_com
     0C:   000008E7  A$radio_send_test_with_usb_com$1   radio_send_test_with_usb_com
     0C:   000008E8  A$radio_send_test_with_usb_com$1   radio_send_test_with_usb_com
     0C:   000008EB  A$radio_send_test_with_usb_com$1   radio_send_test_with_usb_com
     0C:   000008EB  C$radio_send_test_with_usb_com.c   radio_send_test_with_usb_com
     0C:   000008EB  XG$main$0$0                        radio_send_test_with_usb_com
     0C:   000008EC  A$radio_mac$794                    radio_mac
     0C:   000008EC  C$radio_mac.c$57$0$0               radio_mac
     0C:   000008EC  G$ISR_RF$0$0                       radio_mac
     0C:   000008EC  _ISR_RF                            radio_mac
     0C:   000008EE  A$radio_mac$795                    radio_mac
     0C:   000008F0  A$radio_mac$796                    radio_mac
     0C:   000008F2  A$radio_mac$797                    radio_mac
     0C:   000008F4  A$radio_mac$798                    radio_mac
     0C:   000008F6  A$radio_mac$799                    radio_mac
     0C:   000008F8  A$radio_mac$800                    radio_mac
     0C:   000008FA  A$radio_mac$801                    radio_mac
     0C:   000008FC  A$radio_mac$802                    radio_mac
     0C:   000008FE  A$radio_mac$803                    radio_mac
     0C:   00000900  A$radio_mac$804                    radio_mac
     0C:   00000902  A$radio_mac$805                    radio_mac
     0C:   00000904  A$radio_mac$806                    radio_mac
     0C:   00000906  A$radio_mac$807                    radio_mac
     0C:   00000908  A$radio_mac$812                    radio_mac
ASxxxx Linker V02.00 + NoICE + sdld,  page 110.
Hexadecimal  [32-Bits]

Area                                    Addr        Size        Decimal Bytes (Attributes)
--------------------------------        ----        ----        ------- ----- ------------
CSEG                                00000540    00001C08 =        7176. bytes (REL,CON,CODE)

      Value  Global                              Global Defined In Module
      -----  --------------------------------   ------------------------
     0C:   00000908  C$radio_mac.c$59$1$1               radio_mac
     0C:   00000908  C$radio_mac.c$61$1$1               radio_mac
     0C:   00000909  A$radio_mac$813                    radio_mac
     0C:   0000090B  A$radio_mac$814                    radio_mac
     0C:   0000090D  A$radio_mac$815                    radio_mac
     0C:   0000090F  A$radio_mac$816                    radio_mac
     0C:   00000912  A$radio_mac$819                    radio_mac
     0C:   00000912  C$radio_mac.c$63$2$2               radio_mac
     0C:   00000914  A$radio_mac$820                    radio_mac
     0C:   00000917  A$radio_mac$823                    radio_mac
     0C:   00000917  C$radio_mac.c$66$3$3               radio_mac
     0C:   0000091A  A$radio_mac$824                    radio_mac
     0C:   0000091D  A$radio_mac$825                    radio_mac
     0C:   0000091F  A$radio_mac$829                    radio_mac
     0C:   0000091F  C$radio_mac.c$68$2$2               radio_mac
     0C:   00000921  A$radio_mac$830                    radio_mac
     0C:   00000924  A$radio_mac$833                    radio_mac
     0C:   00000924  C$radio_mac.c$72$3$4               radio_mac
     0C:   00000927  A$radio_mac$834                    radio_mac
     0C:   0000092A  A$radio_mac$838                    radio_mac
     0C:   0000092A  C$radio_mac.c$76$1$1               radio_mac
     0C:   0000092C  A$radio_mac$839                    radio_mac
     0C:   0000092F  A$radio_mac$842                    radio_mac
     0C:   0000092F  C$radio_mac.c$80$2$5               radio_mac
     0C:   00000932  A$radio_mac$843                    radio_mac
     0C:   00000935  A$radio_mac$847                    radio_mac
     0C:   00000935  C$radio_mac.c$83$1$1               radio_mac
     0C:   00000938  A$radio_mac$850                    radio_mac
     0C:   00000938  C$radio_mac.c$87$2$6               radio_mac
     0C:   0000093A  A$radio_mac$851                    radio_mac
     0C:   0000093D  A$radio_mac$854                    radio_mac
     0C:   0000093D  C$radio_mac.c$91$3$7               radio_mac
     0C:   0000093F  A$radio_mac$858                    radio_mac
     0C:   0000093F  C$radio_mac.c$94$2$6               radio_mac
     0C:   00000941  A$radio_mac$859                    radio_mac
     0C:   00000944  A$radio_mac$860                    radio_mac
     0C:   00000947  A$radio_mac$861                    radio_mac
     0C:   00000948  A$radio_mac$862                    radio_mac
     0C:   00000949  A$radio_mac$863                    radio_mac
     0C:   0000094C  A$radio_mac$866                    radio_mac
     0C:   0000094C  C$radio_mac.c$96$3$8               radio_mac
     0C:   0000094F  A$radio_mac$867                    radio_mac
     0C:   00000950  A$radio_mac$868                    radio_mac
     0C:   00000951  A$radio_mac$871                    radio_mac
     0C:   00000951  C$radio_mac.c$102$4$9              radio_mac
     0C:   00000954  A$radio_mac$874                    radio_mac
     0C:   00000954  C$radio_mac.c$104$3$8              radio_mac
     0C:   00000957  A$radio_mac$875                    radio_mac
     0C:   00000958  A$radio_mac$876                    radio_mac
     0C:   00000959  A$radio_mac$877                    radio_mac
     0C:   0000095C  A$radio_mac$878                    radio_mac
ASxxxx Linker V02.00 + NoICE + sdld,  page 111.
Hexadecimal  [32-Bits]

Area                                    Addr        Size        Decimal Bytes (Attributes)
--------------------------------        ----        ----        ------- ----- ------------
CSEG                                00000540    00001C08 =        7176. bytes (REL,CON,CODE)

      Value  Global                              Global Defined In Module
      -----  --------------------------------   ------------------------
     0C:   0000095F  A$radio_mac$879                    radio_mac
     0C:   00000961  A$radio_mac$881                    radio_mac
     0C:   00000963  A$radio_mac$882                    radio_mac
     0C:   00000965  A$radio_mac$885                    radio_mac
     0C:   00000965  C$radio_mac.c$109$4$10             radio_mac
     0C:   00000967  A$radio_mac$889                    radio_mac
     0C:   00000967  C$radio_mac.c$120$2$6              radio_mac
     0C:   0000096A  A$radio_mac$890                    radio_mac
     0C:   0000096B  A$radio_mac$891                    radio_mac
     0C:   0000096C  A$radio_mac$892                    radio_mac
     0C:   0000096F  A$radio_mac$893                    radio_mac
     0C:   00000971  A$radio_mac$897                    radio_mac
     0C:   00000971  C$radio_mac.c$122$3$11             radio_mac
     0C:   00000974  A$radio_mac$901                    radio_mac
     0C:   00000974  C$radio_mac.c$127$2$6              radio_mac
     0C:   00000977  A$radio_mac$902                    radio_mac
     0C:   0000097A  A$radio_mac$906                    radio_mac
     0C:   0000097A  C$radio_mac.c$130$1$1              radio_mac
     0C:   0000097C  A$radio_mac$907                    radio_mac
     0C:   0000097F  A$radio_mac$910                    radio_mac
     0C:   0000097F  C$radio_mac.c$135$2$12             radio_mac
     0C:   00000981  A$radio_mac$913                    radio_mac
     0C:   00000981  C$radio_mac.c$136$2$12             radio_mac
     0C:   00000984  A$radio_mac$917                    radio_mac
     0C:   00000984  C$radio_mac.c$139$1$1              radio_mac
     0C:   00000986  A$radio_mac$918                    radio_mac
     0C:   00000989  A$radio_mac$921                    radio_mac
     0C:   00000989  C$radio_mac.c$144$2$13             radio_mac
     0C:   0000098B  A$radio_mac$924                    radio_mac
     0C:   0000098B  C$radio_mac.c$145$2$13             radio_mac
     0C:   0000098E  A$radio_mac$926                    radio_mac
     0C:   00000990  A$radio_mac$927                    radio_mac
     0C:   00000992  A$radio_mac$928                    radio_mac
     0C:   00000994  A$radio_mac$929                    radio_mac
     0C:   00000996  A$radio_mac$930                    radio_mac
     0C:   00000998  A$radio_mac$931                    radio_mac
     0C:   0000099A  A$radio_mac$932                    radio_mac
     0C:   0000099C  A$radio_mac$933                    radio_mac
     0C:   0000099E  A$radio_mac$934                    radio_mac
     0C:   000009A0  A$radio_mac$935                    radio_mac
     0C:   000009A2  A$radio_mac$936                    radio_mac
     0C:   000009A4  A$radio_mac$937                    radio_mac
     0C:   000009A6  A$radio_mac$938                    radio_mac
     0C:   000009A8  A$radio_mac$939                    radio_mac
     0C:   000009AA  A$radio_mac$942                    radio_mac
     0C:   000009AA  C$radio_mac.c$153$2$1              radio_mac
     0C:   000009AA  XG$ISR_RF$0$0                      radio_mac
     0C:   000009AB  A$radio_mac$953                    radio_mac
     0C:   000009AB  C$radio_mac.c$155$2$1              radio_mac
     0C:   000009AB  G$radioMacEvent$0$0                radio_mac
     0C:   000009AD  A$radio_mac$956                    radio_mac
ASxxxx Linker V02.00 + NoICE + sdld,  page 112.
Hexadecimal  [32-Bits]

Area                                    Addr        Size        Decimal Bytes (Attributes)
--------------------------------        ----        ----        ------- ----- ------------
CSEG                                00000540    00001C08 =        7176. bytes (REL,CON,CODE)

      Value  Global                              Global Defined In Module
      -----  --------------------------------   ------------------------
     0C:   000009AD  C$radio_mac.c$163$1$1              radio_mac
     0C:   000009B0  A$radio_mac$957                    radio_mac
     0C:   000009B1  A$radio_mac$958                    radio_mac
     0C:   000009B2  A$radio_mac$959                    radio_mac
     0C:   000009B5  A$radio_mac$960                    radio_mac
     0C:   000009B7  A$radio_mac$962                    radio_mac
     0C:   000009BA  A$radio_mac$963                    radio_mac
     0C:   000009BB  A$radio_mac$964                    radio_mac
     0C:   000009BC  A$radio_mac$965                    radio_mac
     0C:   000009BF  A$radio_mac$966                    radio_mac
     0C:   000009C1  A$radio_mac$968                    radio_mac
     0C:   000009C4  A$radio_mac$969                    radio_mac
     0C:   000009C5  A$radio_mac$970                    radio_mac
     0C:   000009C6  A$radio_mac$971                    radio_mac
     0C:   000009C8  A$radio_mac$972                    radio_mac
     0C:   000009CB  A$radio_mac$973                    radio_mac
     0C:   000009CC  A$radio_mac$974                    radio_mac
     0C:   000009CD  A$radio_mac$975                    radio_mac
     0C:   000009D0  A$radio_mac$976                    radio_mac
     0C:   000009D2  A$radio_mac$980                    radio_mac
     0C:   000009D2  C$radio_mac.c$166$2$2              radio_mac
     0C:   000009D5  A$radio_mac$984                    radio_mac
     0C:   000009D5  C$radio_mac.c$170$1$1              radio_mac
     0C:   000009D8  A$radio_mac$987                    radio_mac
     0C:   000009D8  C$radio_mac.c$171$1$1              radio_mac
     0C:   000009DA  A$radio_mac$988                    radio_mac
     0C:   000009DD  A$radio_mac$989                    radio_mac
     0C:   000009DF  A$radio_mac$992                    radio_mac
     0C:   000009DF  C$radio_mac.c$174$1$1              radio_mac
     0C:   000009E2  A$radio_mac$995                    radio_mac
     0C:   000009E2  C$radio_mac.c$175$1$1              radio_mac
     0C:   000009E5  A$radio_mac$996                    radio_mac
     0C:   000009E7  A$radio_mac$997                    radio_mac
     0C:   000009E8  A$radio_mac$1000                   radio_mac
     0C:   000009E8  C$radio_mac.c$176$1$1              radio_mac
     0C:   000009EA  A$radio_mac$1001                   radio_mac
     0C:   000009ED  A$radio_mac$1004                   radio_mac
     0C:   000009ED  C$radio_mac.c$182$1$1              radio_mac
     0C:   000009F0  A$radio_mac$1007                   radio_mac
     0C:   000009F0  C$radio_mac.c$185$1$1              radio_mac
     0C:   000009F2  A$radio_mac$1008                   radio_mac
     0C:   000009F5  A$radio_mac$1009                   radio_mac
     0C:   000009F7  A$radio_mac$1013                   radio_mac
     0C:   000009F7  C$radio_mac.c$187$2$3              radio_mac
     0C:   000009FA  A$radio_mac$1014                   radio_mac
     0C:   000009FC  A$radio_mac$1018                   radio_mac
     0C:   000009FC  C$radio_mac.c$188$2$3              radio_mac
     0C:   000009FF  A$radio_mac$1021                   radio_mac
     0C:   000009FF  C$radio_mac.c$189$2$3              radio_mac
     0C:   00000A02  A$radio_mac$1026                   radio_mac
     0C:   00000A02  C$radio_mac.c$190$2$3              radio_mac
ASxxxx Linker V02.00 + NoICE + sdld,  page 113.
Hexadecimal  [32-Bits]

Area                                    Addr        Size        Decimal Bytes (Attributes)
--------------------------------        ----        ----        ------- ----- ------------
CSEG                                00000540    00001C08 =        7176. bytes (REL,CON,CODE)

      Value  Global                              Global Defined In Module
      -----  --------------------------------   ------------------------
     0C:   00000A02  C$radio_mac.c$191$2$3              radio_mac
     0C:   00000A04  A$radio_mac$1030                   radio_mac
     0C:   00000A04  C$radio_mac.c$192$2$3              radio_mac
     0C:   00000A07  A$radio_mac$1033                   radio_mac
     0C:   00000A07  C$radio_mac.c$193$2$3              radio_mac
     0C:   00000A0A  A$radio_mac$1039                   radio_mac
     0C:   00000A0A  C$radio_mac.c$195$1$1              radio_mac
     0C:   00000A0A  C$radio_mac.c$198$1$1              radio_mac
     0C:   00000A0C  A$radio_mac$1042                   radio_mac
     0C:   00000A0C  C$radio_mac.c$199$1$1              radio_mac
     0C:   00000A0C  XG$radioMacEvent$0$0               radio_mac
     0C:   00000A0D  A$radio_mac$1055                   radio_mac
     0C:   00000A0D  C$radio_mac.c$201$1$1              radio_mac
     0C:   00000A0D  C$radio_mac.c$203$1$1              radio_mac
     0C:   00000A0D  G$radioMacStrobe$0$0               radio_mac
     0C:   00000A0D  _radioMacStrobe                    radio_mac
     0C:   00000A0F  A$radio_mac$1058                   radio_mac
     0C:   00000A0F  C$radio_mac.c$204$1$1              radio_mac
     0C:   00000A12  A$radio_mac$1061                   radio_mac
     0C:   00000A12  C$radio_mac.c$205$1$1              radio_mac
     0C:   00000A12  XG$radioMacStrobe$0$0              radio_mac
     0C:   00000A13  A$radio_mac$1074                   radio_mac
     0C:   00000A13  C$radio_mac.c$209$1$1              radio_mac
     0C:   00000A13  C$radio_mac.c$211$1$1              radio_mac
     0C:   00000A13  G$radioMacInit$0$0                 radio_mac
     0C:   00000A13  _radioMacInit                      radio_mac
     0C:   00000A16  A$radio_mac$1077                   radio_mac
     0C:   00000A16  C$radio_mac.c$214$1$1              radio_mac
     0C:   00000A19  A$radio_mac$1078                   radio_mac
     0C:   00000A1B  A$radio_mac$1079                   radio_mac
     0C:   00000A1C  A$radio_mac$1082                   radio_mac
     0C:   00000A1C  C$radio_mac.c$215$1$1              radio_mac
     0C:   00000A1F  A$radio_mac$1083                   radio_mac
     0C:   00000A21  A$radio_mac$1084                   radio_mac
     0C:   00000A22  A$radio_mac$1087                   radio_mac
     0C:   00000A22  C$radio_mac.c$216$1$1              radio_mac
     0C:   00000A25  A$radio_mac$1088                   radio_mac
     0C:   00000A27  A$radio_mac$1089                   radio_mac
     0C:   00000A28  A$radio_mac$1092                   radio_mac
     0C:   00000A28  C$radio_mac.c$218$1$1              radio_mac
     0C:   00000A2B  A$radio_mac$1095                   radio_mac
     0C:   00000A2B  C$radio_mac.c$219$1$1              radio_mac
     0C:   00000A2E  A$radio_mac$1098                   radio_mac
     0C:   00000A2E  C$radio_mac.c$221$1$1              radio_mac
     0C:   00000A30  A$radio_mac$1101                   radio_mac
     0C:   00000A30  C$radio_mac.c$223$1$1              radio_mac
     0C:   00000A33  A$radio_mac$1102                   radio_mac
     0C:   00000A35  A$radio_mac$1103                   radio_mac
     0C:   00000A36  A$radio_mac$1106                   radio_mac
     0C:   00000A36  C$radio_mac.c$224$1$1              radio_mac
     0C:   00000A36  XG$radioMacInit$0$0                radio_mac
ASxxxx Linker V02.00 + NoICE + sdld,  page 114.
Hexadecimal  [32-Bits]

Area                                    Addr        Size        Decimal Bytes (Attributes)
--------------------------------        ----        ----        ------- ----- ------------
CSEG                                00000540    00001C08 =        7176. bytes (REL,CON,CODE)

      Value  Global                              Global Defined In Module
      -----  --------------------------------   ------------------------
     0C:   00000A37  A$radio_mac$1117                   radio_mac
     0C:   00000A37  C$radio_mac.c$226$1$1              radio_mac
     0C:   00000A37  G$radioMacRx$0$0                   radio_mac
     0C:   00000A37  _radioMacRx                        radio_mac
     0C:   00000A39  A$radio_mac$1118                   radio_mac
     0C:   00000A3B  A$radio_mac$1121                   radio_mac
     0C:   00000A3B  C$radio_mac.c$228$1$1              radio_mac
     0C:   00000A3D  A$radio_mac$1122                   radio_mac
     0C:   00000A3E  A$radio_mac$1123                   radio_mac
     0C:   00000A40  A$radio_mac$1126                   radio_mac
     0C:   00000A40  C$radio_mac.c$230$2$2              radio_mac
     0C:   00000A43  A$radio_mac$1127                   radio_mac
     0C:   00000A44  A$radio_mac$1128                   radio_mac
     0C:   00000A45  A$radio_mac$1131                   radio_mac
     0C:   00000A45  C$radio_mac.c$231$2$2              radio_mac
     0C:   00000A48  A$radio_mac$1134                   radio_mac
     0C:   00000A48  C$radio_mac.c$232$2$2              radio_mac
     0C:   00000A4A  A$radio_mac$1135                   radio_mac
     0C:   00000A4B  A$radio_mac$1136                   radio_mac
     0C:   00000A4D  A$radio_mac$1139                   radio_mac
     0C:   00000A4D  C$radio_mac.c$233$2$2              radio_mac
     0C:   00000A50  A$radio_mac$1140                   radio_mac
     0C:   00000A52  A$radio_mac$1144                   radio_mac
     0C:   00000A52  C$radio_mac.c$237$2$3              radio_mac
     0C:   00000A55  A$radio_mac$1145                   radio_mac
     0C:   00000A57  A$radio_mac$1146                   radio_mac
     0C:   00000A58  A$radio_mac$1150                   radio_mac
     0C:   00000A58  C$radio_mac.c$240$1$1              radio_mac
     0C:   00000A5A  A$radio_mac$1151                   radio_mac
     0C:   00000A5C  A$radio_mac$1152                   radio_mac
     0C:   00000A5E  A$radio_mac$1153                   radio_mac
     0C:   00000A5F  A$radio_mac$1154                   radio_mac
     0C:   00000A60  A$radio_mac$1155                   radio_mac
     0C:   00000A63  A$radio_mac$1156                   radio_mac
     0C:   00000A64  A$radio_mac$1157                   radio_mac
     0C:   00000A65  A$radio_mac$1160                   radio_mac
     0C:   00000A65  C$radio_mac.c$241$1$1              radio_mac
     0C:   00000A67  A$radio_mac$1161                   radio_mac
     0C:   00000A6A  A$radio_mac$1162                   radio_mac
     0C:   00000A6B  A$radio_mac$1163                   radio_mac
     0C:   00000A6C  A$radio_mac$1166                   radio_mac
     0C:   00000A6C  C$radio_mac.c$242$1$1              radio_mac
     0C:   00000A6E  A$radio_mac$1167                   radio_mac
     0C:   00000A71  A$radio_mac$1168                   radio_mac
     0C:   00000A72  A$radio_mac$1169                   radio_mac
     0C:   00000A73  A$radio_mac$1172                   radio_mac
     0C:   00000A73  C$radio_mac.c$243$1$1              radio_mac
     0C:   00000A76  A$radio_mac$1173                   radio_mac
     0C:   00000A77  A$radio_mac$1174                   radio_mac
     0C:   00000A78  A$radio_mac$1177                   radio_mac
     0C:   00000A78  C$radio_mac.c$244$1$1              radio_mac
ASxxxx Linker V02.00 + NoICE + sdld,  page 115.
Hexadecimal  [32-Bits]

Area                                    Addr        Size        Decimal Bytes (Attributes)
--------------------------------        ----        ----        ------- ----- ------------
CSEG                                00000540    00001C08 =        7176. bytes (REL,CON,CODE)

      Value  Global                              Global Defined In Module
      -----  --------------------------------   ------------------------
     0C:   00000A7B  A$radio_mac$1178                   radio_mac
     0C:   00000A7C  A$radio_mac$1179                   radio_mac
     0C:   00000A7D  A$radio_mac$1180                   radio_mac
     0C:   00000A7E  A$radio_mac$1181                   radio_mac
     0C:   00000A7F  A$radio_mac$1182                   radio_mac
     0C:   00000A80  A$radio_mac$1183                   radio_mac
     0C:   00000A83  A$radio_mac$1184                   radio_mac
     0C:   00000A84  A$radio_mac$1185                   radio_mac
     0C:   00000A85  A$radio_mac$1188                   radio_mac
     0C:   00000A85  C$radio_mac.c$245$1$1              radio_mac
     0C:   00000A88  A$radio_mac$1189                   radio_mac
     0C:   00000A8A  A$radio_mac$1190                   radio_mac
     0C:   00000A8B  A$radio_mac$1193                   radio_mac
     0C:   00000A8B  C$radio_mac.c$247$1$1              radio_mac
     0C:   00000A8E  A$radio_mac$1194                   radio_mac
     0C:   00000A90  A$radio_mac$1195                   radio_mac
     0C:   00000A91  A$radio_mac$1198                   radio_mac
     0C:   00000A91  C$radio_mac.c$249$1$1              radio_mac
     0C:   00000A94  A$radio_mac$1201                   radio_mac
     0C:   00000A94  C$radio_mac.c$250$1$1              radio_mac
     0C:   00000A94  XG$radioMacRx$0$0                  radio_mac
     0C:   00000A95  A$radio_mac$1212                   radio_mac
     0C:   00000A95  C$radio_mac.c$254$1$1              radio_mac
     0C:   00000A95  G$radioMacTx$0$0                   radio_mac
     0C:   00000A95  _radioMacTx                        radio_mac
     0C:   00000A97  A$radio_mac$1213                   radio_mac
     0C:   00000A99  A$radio_mac$1216                   radio_mac
     0C:   00000A99  C$radio_mac.c$256$1$1              radio_mac
     0C:   00000A9B  A$radio_mac$1217                   radio_mac
     0C:   00000A9E  A$radio_mac$1218                   radio_mac
     0C:   00000A9F  A$radio_mac$1219                   radio_mac
     0C:   00000AA0  A$radio_mac$1222                   radio_mac
     0C:   00000AA0  C$radio_mac.c$257$1$1              radio_mac
     0C:   00000AA3  A$radio_mac$1223                   radio_mac
     0C:   00000AA4  A$radio_mac$1224                   radio_mac
     0C:   00000AA5  A$radio_mac$1227                   radio_mac
     0C:   00000AA5  C$radio_mac.c$258$1$1              radio_mac
     0C:   00000AA7  A$radio_mac$1228                   radio_mac
     0C:   00000AA9  A$radio_mac$1229                   radio_mac
     0C:   00000AAB  A$radio_mac$1230                   radio_mac
     0C:   00000AAC  A$radio_mac$1231                   radio_mac
     0C:   00000AAD  A$radio_mac$1232                   radio_mac
     0C:   00000AB0  A$radio_mac$1233                   radio_mac
     0C:   00000AB1  A$radio_mac$1234                   radio_mac
     0C:   00000AB2  A$radio_mac$1237                   radio_mac
     0C:   00000AB2  C$radio_mac.c$259$1$1              radio_mac
     0C:   00000AB4  A$radio_mac$1238                   radio_mac
     0C:   00000AB7  A$radio_mac$1239                   radio_mac
     0C:   00000AB8  A$radio_mac$1240                   radio_mac
     0C:   00000AB9  A$radio_mac$1243                   radio_mac
     0C:   00000AB9  C$radio_mac.c$260$1$1              radio_mac
ASxxxx Linker V02.00 + NoICE + sdld,  page 116.
Hexadecimal  [32-Bits]

Area                                    Addr        Size        Decimal Bytes (Attributes)
--------------------------------        ----        ----        ------- ----- ------------
CSEG                                00000540    00001C08 =        7176. bytes (REL,CON,CODE)

      Value  Global                              Global Defined In Module
      -----  --------------------------------   ------------------------
     0C:   00000ABC  A$radio_mac$1244                   radio_mac
     0C:   00000ABD  A$radio_mac$1245                   radio_mac
     0C:   00000ABE  A$radio_mac$1246                   radio_mac
     0C:   00000ABF  A$radio_mac$1247                   radio_mac
     0C:   00000AC2  A$radio_mac$1248                   radio_mac
     0C:   00000AC3  A$radio_mac$1249                   radio_mac
     0C:   00000AC4  A$radio_mac$1252                   radio_mac
     0C:   00000AC4  C$radio_mac.c$261$1$1              radio_mac
     0C:   00000AC7  A$radio_mac$1253                   radio_mac
     0C:   00000AC9  A$radio_mac$1254                   radio_mac
     0C:   00000ACA  A$radio_mac$1257                   radio_mac
     0C:   00000ACA  C$radio_mac.c$263$1$1              radio_mac
     0C:   00000ACD  A$radio_mac$1258                   radio_mac
     0C:   00000ACF  A$radio_mac$1259                   radio_mac
     0C:   00000AD0  A$radio_mac$1262                   radio_mac
     0C:   00000AD0  C$radio_mac.c$265$1$1              radio_mac
     0C:   00000AD3  A$radio_mac$1265                   radio_mac
     0C:   00000AD3  C$radio_mac.c$266$1$1              radio_mac
     0C:   00000AD3  XG$radioMacTx$0$0                  radio_mac
     0C:   00000AD4  A$radio_queue$799                  radio_queue
     0C:   00000AD4  C$radio_queue.c$70$0$0             radio_queue
     0C:   00000AD4  C$radio_queue.c$72$1$1             radio_queue
     0C:   00000AD4  G$radioQueueInit$0$0               radio_queue
     0C:   00000AD4  _radioQueueInit                    radio_queue
     0C:   00000AD7  A$radio_queue$802                  radio_queue
     0C:   00000AD7  C$radio_queue.c$74$1$1             radio_queue
     0C:   00000ADA  A$radio_queue$803                  radio_queue
     0C:   00000ADC  A$radio_queue$804                  radio_queue
     0C:   00000ADD  A$radio_queue$807                  radio_queue
     0C:   00000ADD  C$radio_queue.c$75$1$1             radio_queue
     0C:   00000AE0  A$radio_queue$808                  radio_queue
     0C:   00000AE1  A$radio_queue$809                  radio_queue
     0C:   00000AE2  A$radio_queue$810                  radio_queue
     0C:   00000AE3  A$radio_queue$811                  radio_queue
     0C:   00000AE5  A$radio_queue$812                  radio_queue
     0C:   00000AE6  A$radio_queue$813                  radio_queue
     0C:   00000AE8  A$radio_queue$814                  radio_queue
     0C:   00000AE9  A$radio_queue$815                  radio_queue
     0C:   00000AEB  A$radio_queue$816                  radio_queue
     0C:   00000AEC  A$radio_queue$817                  radio_queue
     0C:   00000AEF  A$radio_queue$818                  radio_queue
     0C:   00000AF0  A$radio_queue$819                  radio_queue
     0C:   00000AF1  A$radio_queue$822                  radio_queue
     0C:   00000AF1  C$radio_queue.c$77$1$1             radio_queue
     0C:   00000AF4  A$radio_queue$825                  radio_queue
     0C:   00000AF4  C$radio_queue.c$78$1$1             radio_queue
     0C:   00000AF7  A$radio_queue$828                  radio_queue
     0C:   00000AF7  C$radio_queue.c$79$1$1             radio_queue
     0C:   00000AF7  XG$radioQueueInit$0$0              radio_queue
     0C:   00000AF8  A$radio_queue$841                  radio_queue
     0C:   00000AF8  C$radio_queue.c$83$1$1             radio_queue
ASxxxx Linker V02.00 + NoICE + sdld,  page 117.
Hexadecimal  [32-Bits]

Area                                    Addr        Size        Decimal Bytes (Attributes)
--------------------------------        ----        ----        ------- ----- ------------
CSEG                                00000540    00001C08 =        7176. bytes (REL,CON,CODE)

      Value  Global                              Global Defined In Module
      -----  --------------------------------   ------------------------
     0C:   00000AF8  C$radio_queue.c$85$1$1             radio_queue
     0C:   00000AF8  Fradio_queue$randomTxDelay$0$0     radio_queue
     0C:   00000AFB  A$radio_queue$842                  radio_queue
     0C:   00000AFD  A$radio_queue$843                  radio_queue
     0C:   00000AFF  A$radio_queue$844                  radio_queue
     0C:   00000B00  A$radio_queue$845                  radio_queue
     0C:   00000B02  A$radio_queue$848                  radio_queue
     0C:   00000B02  C$radio_queue.c$86$1$1             radio_queue
     0C:   00000B02  XFradio_queue$randomTxDelay$0$0    radio_queue
     0C:   00000B03  A$radio_queue$861                  radio_queue
     0C:   00000B03  C$radio_queue.c$90$1$1             radio_queue
     0C:   00000B03  C$radio_queue.c$93$1$1             radio_queue
     0C:   00000B03  G$radioQueueTxAvailable$0$0        radio_queue
     0C:   00000B03  _radioQueueTxAvailable             radio_queue
     0C:   00000B05  A$radio_queue$862                  radio_queue
     0C:   00000B06  A$radio_queue$863                  radio_queue
     0C:   00000B08  A$radio_queue$864                  radio_queue
     0C:   00000B09  A$radio_queue$865                  radio_queue
     0C:   00000B0B  A$radio_queue$866                  radio_queue
     0C:   00000B0D  A$radio_queue$869                  radio_queue
     0C:   00000B0D  C$radio_queue.c$94$1$1             radio_queue
     0C:   00000B0D  XG$radioQueueTxAvailable$0$0       radio_queue
     0C:   00000B0E  A$radio_queue$882                  radio_queue
     0C:   00000B0E  C$radio_queue.c$96$1$1             radio_queue
     0C:   00000B0E  C$radio_queue.c$98$1$1             radio_queue
     0C:   00000B0E  G$radioQueueTxQueued$0$0           radio_queue
     0C:   00000B0E  _radioQueueTxQueued                radio_queue
     0C:   00000B10  A$radio_queue$883                  radio_queue
     0C:   00000B11  A$radio_queue$884                  radio_queue
     0C:   00000B13  A$radio_queue$885                  radio_queue
     0C:   00000B15  A$radio_queue$886                  radio_queue
     0C:   00000B17  A$radio_queue$889                  radio_queue
     0C:   00000B17  C$radio_queue.c$99$1$1             radio_queue
     0C:   00000B17  XG$radioQueueTxQueued$0$0          radio_queue
     0C:   00000B18  A$radio_queue$902                  radio_queue
     0C:   00000B18  C$radio_queue.c$101$1$1            radio_queue
     0C:   00000B18  C$radio_queue.c$103$1$1            radio_queue
     0C:   00000B18  G$radioQueueTxCurrentPacket$0$0    radio_queue
     0C:   00000B18  _radioQueueTxCurrentPacket         radio_queue
     0C:   00000B1B  A$radio_queue$903                  radio_queue
     0C:   00000B1D  A$radio_queue$904                  radio_queue
     0C:   00000B1F  A$radio_queue$907                  radio_queue
     0C:   00000B1F  C$radio_queue.c$105$2$2            radio_queue
     0C:   00000B22  A$radio_queue$908                  radio_queue
     0C:   00000B24  A$radio_queue$912                  radio_queue
     0C:   00000B24  C$radio_queue.c$108$1$1            radio_queue
     0C:   00000B26  A$radio_queue$913                  radio_queue
     0C:   00000B29  A$radio_queue$914                  radio_queue
     0C:   00000B2A  A$radio_queue$915                  radio_queue
     0C:   00000B2C  A$radio_queue$916                  radio_queue
     0C:   00000B2D  A$radio_queue$917                  radio_queue
ASxxxx Linker V02.00 + NoICE + sdld,  page 118.
Hexadecimal  [32-Bits]

Area                                    Addr        Size        Decimal Bytes (Attributes)
--------------------------------        ----        ----        ------- ----- ------------
CSEG                                00000540    00001C08 =        7176. bytes (REL,CON,CODE)

      Value  Global                              Global Defined In Module
      -----  --------------------------------   ------------------------
     0C:   00000B2F  A$radio_queue$918                  radio_queue
     0C:   00000B31  A$radio_queue$921                  radio_queue
     0C:   00000B31  C$radio_queue.c$109$1$1            radio_queue
     0C:   00000B31  XG$radioQueueTxCurrentPacket$0$0   radio_queue
     0C:   00000B33  A$radio_queue$922                  radio_queue
     0C:   00000B35  A$radio_queue$924                  radio_queue
     0C:   00000B36  A$radio_queue$937                  radio_queue
     0C:   00000B36  C$radio_queue.c$111$1$1            radio_queue
     0C:   00000B36  C$radio_queue.c$114$1$1            radio_queue
     0C:   00000B36  G$radioQueueTxSendPacket$0$0       radio_queue
     0C:   00000B36  _radioQueueTxSendPacket            radio_queue
     0C:   00000B38  A$radio_queue$938                  radio_queue
     0C:   00000B3B  A$radio_queue$941                  radio_queue
     0C:   00000B3B  C$radio_queue.c$116$2$2            radio_queue
     0C:   00000B3E  A$radio_queue$942                  radio_queue
     0C:   00000B40  A$radio_queue$946                  radio_queue
     0C:   00000B40  C$radio_queue.c$120$2$3            radio_queue
     0C:   00000B42  A$radio_queue$950                  radio_queue
     0C:   00000B42  C$radio_queue.c$125$1$1            radio_queue
     0C:   00000B45  A$radio_queue$953                  radio_queue
     0C:   00000B45  C$radio_queue.c$126$1$1            radio_queue
     0C:   00000B45  XG$radioQueueTxSendPacket$0$0      radio_queue
     0C:   00000B46  A$radio_queue$966                  radio_queue
     0C:   00000B46  C$radio_queue.c$130$1$1            radio_queue
     0C:   00000B46  C$radio_queue.c$132$1$1            radio_queue
     0C:   00000B46  G$radioQueueRxCurrentPacket$0$0    radio_queue
     0C:   00000B46  _radioQueueRxCurrentPacket         radio_queue
     0C:   00000B48  A$radio_queue$967                  radio_queue
     0C:   00000B4B  A$radio_queue$970                  radio_queue
     0C:   00000B4B  C$radio_queue.c$134$2$2            radio_queue
     0C:   00000B4E  A$radio_queue$971                  radio_queue
     0C:   00000B50  A$radio_queue$975                  radio_queue
     0C:   00000B50  C$radio_queue.c$136$1$1            radio_queue
     0C:   00000B52  A$radio_queue$976                  radio_queue
     0C:   00000B55  A$radio_queue$977                  radio_queue
     0C:   00000B56  A$radio_queue$978                  radio_queue
     0C:   00000B58  A$radio_queue$979                  radio_queue
     0C:   00000B59  A$radio_queue$980                  radio_queue
     0C:   00000B5A  A$radio_queue$981                  radio_queue
     0C:   00000B5C  A$radio_queue$984                  radio_queue
     0C:   00000B5C  C$radio_queue.c$137$1$1            radio_queue
     0C:   00000B5C  XG$radioQueueRxCurrentPacket$0$0   radio_queue
     0C:   00000B5E  A$radio_queue$985                  radio_queue
     0C:   00000B60  A$radio_queue$987                  radio_queue
     0C:   00000B61  A$radio_queue$1000                 radio_queue
     0C:   00000B61  C$radio_queue.c$139$1$1            radio_queue
     0C:   00000B61  C$radio_queue.c$141$1$1            radio_queue
     0C:   00000B61  G$radioQueueRxDoneWithPacket$0$0   radio_queue
     0C:   00000B61  _radioQueueRxDoneWithPacket        radio_queue
     0C:   00000B63  A$radio_queue$1001                 radio_queue
     0C:   00000B66  A$radio_queue$1004                 radio_queue
ASxxxx Linker V02.00 + NoICE + sdld,  page 119.
Hexadecimal  [32-Bits]

Area                                    Addr        Size        Decimal Bytes (Attributes)
--------------------------------        ----        ----        ------- ----- ------------
CSEG                                00000540    00001C08 =        7176. bytes (REL,CON,CODE)

      Value  Global                              Global Defined In Module
      -----  --------------------------------   ------------------------
     0C:   00000B66  C$radio_queue.c$143$2$2            radio_queue
     0C:   00000B69  A$radio_queue$1005                 radio_queue
     0C:   00000B6B  A$radio_queue$1009                 radio_queue
     0C:   00000B6B  C$radio_queue.c$147$2$3            radio_queue
     0C:   00000B6D  A$radio_queue$1013                 radio_queue
     0C:   00000B6D  C$radio_queue.c$149$1$1            radio_queue
     0C:   00000B6D  XG$radioQueueRxDoneWithPacket$0$   radio_queue
     0C:   00000B6E  A$radio_queue$1026                 radio_queue
     0C:   00000B6E  C$radio_queue.c$153$1$1            radio_queue
     0C:   00000B6E  C$radio_queue.c$155$1$1            radio_queue
     0C:   00000B6E  Fradio_queue$takeInitiative$0$0    radio_queue
     0C:   00000B70  A$radio_queue$1027                 radio_queue
     0C:   00000B73  A$radio_queue$1028                 radio_queue
     0C:   00000B75  A$radio_queue$1032                 radio_queue
     0C:   00000B75  C$radio_queue.c$158$2$2            radio_queue
     0C:   00000B77  A$radio_queue$1033                 radio_queue
     0C:   00000B7A  A$radio_queue$1034                 radio_queue
     0C:   00000B7B  A$radio_queue$1035                 radio_queue
     0C:   00000B7D  A$radio_queue$1036                 radio_queue
     0C:   00000B7F  A$radio_queue$1037                 radio_queue
     0C:   00000B81  A$radio_queue$1038                 radio_queue
     0C:   00000B83  A$radio_queue$1039                 radio_queue
     0C:   00000B85  A$radio_queue$1040                 radio_queue
     0C:   00000B88  A$radio_queue$1041                 radio_queue
     0C:   00000B8A  A$radio_queue$1045                 radio_queue
     0C:   00000B8A  C$radio_queue.c$162$2$3            radio_queue
     0C:   00000B8C  A$radio_queue$1046                 radio_queue
     0C:   00000B8F  A$radio_queue$1047                 radio_queue
     0C:   00000B90  A$radio_queue$1048                 radio_queue
     0C:   00000B92  A$radio_queue$1049                 radio_queue
     0C:   00000B94  A$radio_queue$1050                 radio_queue
     0C:   00000B95  A$radio_queue$1051                 radio_queue
     0C:   00000B97  A$radio_queue$1052                 radio_queue
     0C:   00000B99  A$radio_queue$1053                 radio_queue
     0C:   00000B9B  A$radio_queue$1054                 radio_queue
     0C:   00000B9C  A$radio_queue$1055                 radio_queue
     0C:   00000B9D  A$radio_queue$1056                 radio_queue
     0C:   00000BA0  A$radio_queue$1060                 radio_queue
     0C:   00000BA0  C$radio_queue.c$164$1$1            radio_queue
     0C:   00000BA0  XFradio_queue$takeInitiative$0$0   radio_queue
     0C:   00000BA1  A$radio_queue$1071                 radio_queue
     0C:   00000BA1  C$radio_queue.c$166$1$1            radio_queue
     0C:   00000BA1  G$radioMacEventHandler$0$0         radio_queue
     0C:   00000BA1  _radioMacEventHandler              radio_queue
     0C:   00000BA3  A$radio_queue$1074                 radio_queue
     0C:   00000BA3  C$radio_queue.c$168$1$1            radio_queue
     0C:   00000BA6  A$radio_queue$1077                 radio_queue
     0C:   00000BA6  C$radio_queue.c$170$2$2            radio_queue
     0C:   00000BA9  A$radio_queue$1080                 radio_queue
     0C:   00000BA9  C$radio_queue.c$171$2$2            radio_queue
     0C:   00000BAC  A$radio_queue$1084                 radio_queue
ASxxxx Linker V02.00 + NoICE + sdld,  page 120.
Hexadecimal  [32-Bits]

Area                                    Addr        Size        Decimal Bytes (Attributes)
--------------------------------        ----        ----        ------- ----- ------------
CSEG                                00000540    00001C08 =        7176. bytes (REL,CON,CODE)

      Value  Global                              Global Defined In Module
      -----  --------------------------------   ------------------------
     0C:   00000BAC  C$radio_queue.c$173$1$1            radio_queue
     0C:   00000BAF  A$radio_queue$1087                 radio_queue
     0C:   00000BAF  C$radio_queue.c$176$2$3            radio_queue
     0C:   00000BB1  A$radio_queue$1088                 radio_queue
     0C:   00000BB4  A$radio_queue$1091                 radio_queue
     0C:   00000BB4  C$radio_queue.c$178$3$4            radio_queue
     0C:   00000BB7  A$radio_queue$1092                 radio_queue
     0C:   00000BB9  A$radio_queue$1096                 radio_queue
     0C:   00000BB9  C$radio_queue.c$182$3$5            radio_queue
     0C:   00000BBB  A$radio_queue$1100                 radio_queue
     0C:   00000BBB  C$radio_queue.c$186$2$3            radio_queue
     0C:   00000BBD  A$radio_queue$1101                 radio_queue
     0C:   00000BC0  A$radio_queue$1102                 radio_queue
     0C:   00000BC1  A$radio_queue$1103                 radio_queue
     0C:   00000BC3  A$radio_queue$1104                 radio_queue
     0C:   00000BC4  A$radio_queue$1105                 radio_queue
     0C:   00000BC5  A$radio_queue$1106                 radio_queue
     0C:   00000BC7  A$radio_queue$1107                 radio_queue
     0C:   00000BC8  A$radio_queue$1108                 radio_queue
     0C:   00000BCA  A$radio_queue$1109                 radio_queue
     0C:   00000BCC  A$radio_queue$1110                 radio_queue
     0C:   00000BCF  A$radio_queue$1111                 radio_queue
     0C:   00000BD1  A$radio_queue$1112                 radio_queue
     0C:   00000BD3  A$radio_queue$1113                 radio_queue
     0C:   00000BD5  A$radio_queue$1114                 radio_queue
     0C:   00000BD7  A$radio_queue$1115                 radio_queue
     0C:   00000BD8  A$radio_queue$1116                 radio_queue
     0C:   00000BD9  A$radio_queue$1117                 radio_queue
     0C:   00000BDB  A$radio_queue$1118                 radio_queue
     0C:   00000BDD  A$radio_queue$1119                 radio_queue
     0C:   00000BE0  A$radio_queue$1122                 radio_queue
     0C:   00000BE0  C$radio_queue.c$187$2$3            radio_queue
     0C:   00000BE2  A$radio_queue$1126                 radio_queue
     0C:   00000BE2  C$radio_queue.c$189$1$1            radio_queue
     0C:   00000BE5  A$radio_queue$1129                 radio_queue
     0C:   00000BE5  C$radio_queue.c$191$2$6            radio_queue
     0C:   00000BE7  A$radio_queue$1130                 radio_queue
     0C:   00000BEA  A$radio_queue$1131                 radio_queue
     0C:   00000BEB  A$radio_queue$1132                 radio_queue
     0C:   00000BED  A$radio_queue$1133                 radio_queue
     0C:   00000BEE  A$radio_queue$1134                 radio_queue
     0C:   00000BEF  A$radio_queue$1135                 radio_queue
     0C:   00000BF1  A$radio_queue$1136                 radio_queue
     0C:   00000BF2  A$radio_queue$1139                 radio_queue
     0C:   00000BF2  C$radio_queue.c$193$2$6            radio_queue
     0C:   00000BF5  A$radio_queue$1140                 radio_queue
     0C:   00000BF7  A$radio_queue$1141                 radio_queue
     0C:   00000BF9  A$radio_queue$1142                 radio_queue
     0C:   00000BFC  A$radio_queue$1143                 radio_queue
     0C:   00000BFE  A$radio_queue$1144                 radio_queue
     0C:   00000C00  A$radio_queue$1145                 radio_queue
ASxxxx Linker V02.00 + NoICE + sdld,  page 121.
Hexadecimal  [32-Bits]

Area                                    Addr        Size        Decimal Bytes (Attributes)
--------------------------------        ----        ----        ------- ----- ------------
CSEG                                00000540    00001C08 =        7176. bytes (REL,CON,CODE)

      Value  Global                              Global Defined In Module
      -----  --------------------------------   ------------------------
     0C:   00000C02  A$radio_queue$1148                 radio_queue
     0C:   00000C02  C$radio_queue.c$195$3$7            radio_queue
     0C:   00000C04  A$radio_queue$1149                 radio_queue
     0C:   00000C07  A$radio_queue$1150                 radio_queue
     0C:   00000C09  A$radio_queue$1154                 radio_queue
     0C:   00000C09  C$radio_queue.c$197$4$8            radio_queue
     0C:   00000C0B  A$radio_queue$1155                 radio_queue
     0C:   00000C0D  A$radio_queue$1156                 radio_queue
     0C:   00000C10  A$radio_queue$1157                 radio_queue
     0C:   00000C12  A$radio_queue$1158                 radio_queue
     0C:   00000C14  A$radio_queue$1159                 radio_queue
     0C:   00000C16  A$radio_queue$1160                 radio_queue
     0C:   00000C18  A$radio_queue$1161                 radio_queue
     0C:   00000C19  A$radio_queue$1162                 radio_queue
     0C:   00000C1A  A$radio_queue$1163                 radio_queue
     0C:   00000C1C  A$radio_queue$1164                 radio_queue
     0C:   00000C1E  A$radio_queue$1165                 radio_queue
     0C:   00000C21  A$radio_queue$1166                 radio_queue
     0C:   00000C23  A$radio_queue$1170                 radio_queue
     0C:   00000C23  C$radio_queue.c$201$4$9            radio_queue
     0C:   00000C25  A$radio_queue$1171                 radio_queue
     0C:   00000C26  A$radio_queue$1172                 radio_queue
     0C:   00000C27  A$radio_queue$1173                 radio_queue
     0C:   00000C29  A$radio_queue$1174                 radio_queue
     0C:   00000C2B  A$radio_queue$1175                 radio_queue
     0C:   00000C2E  A$radio_queue$1179                 radio_queue
     0C:   00000C2E  C$radio_queue.c$203$3$7            radio_queue
     0C:   00000C30  A$radio_queue$1183                 radio_queue
     0C:   00000C30  C$radio_queue.c$206$2$6            radio_queue
     0C:   00000C32  A$radio_queue$1184                 radio_queue
     0C:   00000C34  A$radio_queue$1185                 radio_queue
     0C:   00000C35  A$radio_queue$1186                 radio_queue
     0C:   00000C37  A$radio_queue$1189                 radio_queue
     0C:   00000C37  C$radio_queue.c$213$3$10           radio_queue
     0C:   00000C39  A$radio_queue$1190                 radio_queue
     0C:   00000C3C  A$radio_queue$1193                 radio_queue
     0C:   00000C3C  C$radio_queue.c$215$4$11           radio_queue
     0C:   00000C3E  A$radio_queue$1194                 radio_queue
     0C:   00000C40  A$radio_queue$1198                 radio_queue
     0C:   00000C40  C$radio_queue.c$219$4$12           radio_queue
     0C:   00000C42  A$radio_queue$1199                 radio_queue
     0C:   00000C43  A$radio_queue$1200                 radio_queue
     0C:   00000C44  A$radio_queue$1204                 radio_queue
     0C:   00000C44  C$radio_queue.c$222$3$10           radio_queue
     0C:   00000C45  A$radio_queue$1205                 radio_queue
     0C:   00000C48  A$radio_queue$1206                 radio_queue
     0C:   00000C4A  A$radio_queue$1210                 radio_queue
     0C:   00000C4A  C$radio_queue.c$225$4$13           radio_queue
     0C:   00000C4C  A$radio_queue$1214                 radio_queue
     0C:   00000C4C  C$radio_queue.c$229$2$6            radio_queue
     0C:   00000C4F  A$radio_queue$1217                 radio_queue
ASxxxx Linker V02.00 + NoICE + sdld,  page 122.
Hexadecimal  [32-Bits]

Area                                    Addr        Size        Decimal Bytes (Attributes)
--------------------------------        ----        ----        ------- ----- ------------
CSEG                                00000540    00001C08 =        7176. bytes (REL,CON,CODE)

      Value  Global                              Global Defined In Module
      -----  --------------------------------   ------------------------
     0C:   00000C4F  C$radio_queue.c$230$2$6            radio_queue
     0C:   00000C51  A$radio_queue$1221                 radio_queue
     0C:   00000C51  C$radio_queue.c$232$1$1            radio_queue
     0C:   00000C54  A$radio_queue$1224                 radio_queue
     0C:   00000C54  C$radio_queue.c$234$2$14           radio_queue
     0C:   00000C57  A$radio_queue$1230                 radio_queue
     0C:   00000C57  C$radio_queue.c$235$2$14           radio_queue
     0C:   00000C57  C$radio_queue.c$237$2$1            radio_queue
     0C:   00000C57  XG$radioMacEventHandler$0$0        radio_queue
     0C:   00000C58  A$radio_queue$1241                 radio_queue
     0C:   00000C58  C$radio_queue.c$240$2$1            radio_queue
     0C:   00000C58  G$radioQueueChangeChannel$0$0      radio_queue
     0C:   00000C58  _radioQueueChangeChannel           radio_queue
     0C:   00000C5A  A$radio_queue$1247                 radio_queue
     0C:   00000C5A  C$radio_queue.c$261$1$1            radio_queue
     0C:   00000C5A  C$radio_queue.c$263$2$2            radio_queue
     0C:   00000C5D  A$radio_queue$1250                 radio_queue
     0C:   00000C5D  C$radio_queue.c$265$1$1            radio_queue
     0C:   00000C60  A$radio_queue$1251                 radio_queue
     0C:   00000C61  A$radio_queue$1252                 radio_queue
     0C:   00000C62  A$radio_queue$1253                 radio_queue
     0C:   00000C65  A$radio_queue$1254                 radio_queue
     0C:   00000C68  A$radio_queue$1257                 radio_queue
     0C:   00000C68  C$radio_queue.c$268$1$1            radio_queue
     0C:   00000C6B  A$radio_queue$1258                 radio_queue
     0C:   00000C6C  A$radio_queue$1259                 radio_queue
     0C:   00000C6D  A$radio_queue$1265                 radio_queue
     0C:   00000C6D  C$radio_queue.c$270$1$1            radio_queue
     0C:   00000C6D  C$radio_queue.c$272$2$3            radio_queue
     0C:   00000C70  A$radio_queue$1268                 radio_queue
     0C:   00000C70  C$radio_queue.c$274$1$1            radio_queue
     0C:   00000C73  A$radio_queue$1269                 radio_queue
     0C:   00000C74  A$radio_queue$1270                 radio_queue
     0C:   00000C75  A$radio_queue$1271                 radio_queue
     0C:   00000C78  A$radio_queue$1272                 radio_queue
     0C:   00000C7B  A$radio_queue$1275                 radio_queue
     0C:   00000C7B  C$radio_queue.c$276$1$1            radio_queue
     0C:   00000C7E  A$radio_queue$1278                 radio_queue
     0C:   00000C7E  C$radio_queue.c$277$1$1            radio_queue
     0C:   00000C81  A$radio_queue$1281                 radio_queue
     0C:   00000C81  C$radio_queue.c$280$1$1            radio_queue
     0C:   00000C84  A$radio_queue$1284                 radio_queue
     0C:   00000C84  C$radio_queue.c$281$1$1            radio_queue
     0C:   00000C84  XG$radioQueueChangeChannel$0$0     radio_queue
     0C:   00000C85  A$random$747                       random
     0C:   00000C85  C$random.c$12$1$1                  random
     0C:   00000C85  C$random.c$9$0$0                   random
     0C:   00000C85  G$randomNumber$0$0                 random
     0C:   00000C85  _randomNumber                      random
     0C:   00000C87  A$random$748                       random
     0C:   00000C89  A$random$749                       random
ASxxxx Linker V02.00 + NoICE + sdld,  page 123.
Hexadecimal  [32-Bits]

Area                                    Addr        Size        Decimal Bytes (Attributes)
--------------------------------        ----        ----        ------- ----- ------------
CSEG                                00000540    00001C08 =        7176. bytes (REL,CON,CODE)

      Value  Global                              Global Defined In Module
      -----  --------------------------------   ------------------------
     0C:   00000C8B  A$random$750                       random
     0C:   00000C8D  A$random$754                       random
     0C:   00000C8D  C$random.c$13$1$1                  random
     0C:   00000C90  A$random$757                       random
     0C:   00000C90  C$random.c$14$1$1                  random
     0C:   00000C92  A$random$758                       random
     0C:   00000C94  A$random$759                       random
     0C:   00000C96  A$random$760                       random
     0C:   00000C98  A$random$765                       random
     0C:   00000C98  C$random.c$15$1$1                  random
     0C:   00000C98  C$random.c$16$1$1                  random
     0C:   00000C98  XG$randomNumber$0$0                random
     0C:   00000C99  A$random$776                       random
     0C:   00000C99  C$random.c$18$1$1                  random
     0C:   00000C99  G$randomSeed$0$0                   random
     0C:   00000C99  _randomSeed                        random
     0C:   00000C9B  A$random$779                       random
     0C:   00000C9B  C$random.c$23$1$1                  random
     0C:   00000C9D  A$random$780                       random
     0C:   00000C9E  A$random$781                       random
     0C:   00000CA0  A$random$782                       random
     0C:   00000CA1  A$random$783                       random
     0C:   00000CA3  A$random$785                       random
     0C:   00000CA5  A$random$786                       random
     0C:   00000CA6  A$random$787                       random
     0C:   00000CA9  A$random$788                       random
     0C:   00000CAC  A$random$792                       random
     0C:   00000CAC  C$random.c$25$2$2                  random
     0C:   00000CAE  A$random$793                       random
     0C:   00000CB0  A$random$794                       random
     0C:   00000CB1  A$random$798                       random
     0C:   00000CB1  C$random.c$28$1$1                  random
     0C:   00000CB3  A$random$801                       random
     0C:   00000CB3  C$random.c$29$1$1                  random
     0C:   00000CB5  A$random$802                       random
     0C:   00000CB6  A$random$803                       random
     0C:   00000CB8  A$random$806                       random
     0C:   00000CB8  C$random.c$30$1$1                  random
     0C:   00000CBB  A$random$809                       random
     0C:   00000CBB  C$random.c$31$1$1                  random
     0C:   00000CBE  A$random$812                       random
     0C:   00000CBE  C$random.c$32$1$1                  random
     0C:   00000CC1  A$random$815                       random
     0C:   00000CC1  C$random.c$33$1$1                  random
     0C:   00000CC1  XG$randomSeed$0$0                  random
     0C:   00000CC2  A$usb_cdc_acm$851                  usb_cdc_acm
     0C:   00000CC2  C$usb_cdc_acm.c$234$0$0            usb_cdc_acm
     0C:   00000CC2  C$usb_cdc_acm.c$236$1$1            usb_cdc_acm
     0C:   00000CC2  G$usbCallbackInitEndpoints$0$0     usb_cdc_acm
     0C:   00000CC2  _usbCallbackInitEndpoints          usb_cdc_acm
     0C:   00000CC4  A$usb_cdc_acm$852                  usb_cdc_acm
ASxxxx Linker V02.00 + NoICE + sdld,  page 124.
Hexadecimal  [32-Bits]

Area                                    Addr        Size        Decimal Bytes (Attributes)
--------------------------------        ----        ----        ------- ----- ------------
CSEG                                00000540    00001C08 =        7176. bytes (REL,CON,CODE)

      Value  Global                              Global Defined In Module
      -----  --------------------------------   ------------------------
     0C:   00000CC6  A$usb_cdc_acm$853                  usb_cdc_acm
     0C:   00000CC7  A$usb_cdc_acm$854                  usb_cdc_acm
     0C:   00000CCA  A$usb_cdc_acm$855                  usb_cdc_acm
     0C:   00000CCD  A$usb_cdc_acm$858                  usb_cdc_acm
     0C:   00000CCD  C$usb_cdc_acm.c$237$1$1            usb_cdc_acm
     0C:   00000CCF  A$usb_cdc_acm$859                  usb_cdc_acm
     0C:   00000CD1  A$usb_cdc_acm$860                  usb_cdc_acm
     0C:   00000CD2  A$usb_cdc_acm$861                  usb_cdc_acm
     0C:   00000CD5  A$usb_cdc_acm$862                  usb_cdc_acm
     0C:   00000CD8  A$usb_cdc_acm$865                  usb_cdc_acm
     0C:   00000CD8  C$usb_cdc_acm.c$238$1$1            usb_cdc_acm
     0C:   00000CDA  A$usb_cdc_acm$866                  usb_cdc_acm
     0C:   00000CDC  A$usb_cdc_acm$867                  usb_cdc_acm
     0C:   00000CDD  A$usb_cdc_acm$868                  usb_cdc_acm
     0C:   00000CE0  A$usb_cdc_acm$869                  usb_cdc_acm
     0C:   00000CE3  A$usb_cdc_acm$872                  usb_cdc_acm
     0C:   00000CE3  C$usb_cdc_acm.c$241$1$1            usb_cdc_acm
     0C:   00000CE5  A$usb_cdc_acm$873                  usb_cdc_acm
     0C:   00000CE7  A$usb_cdc_acm$874                  usb_cdc_acm
     0C:   00000CE8  A$usb_cdc_acm$877                  usb_cdc_acm
     0C:   00000CE8  C$usb_cdc_acm.c$242$1$1            usb_cdc_acm
     0C:   00000CE8  XG$usbCallbackInitEndpoints$0$0    usb_cdc_acm
     0C:   00000CE9  A$usb_cdc_acm$890                  usb_cdc_acm
     0C:   00000CE9  C$usb_cdc_acm.c$246$1$1            usb_cdc_acm
     0C:   00000CE9  C$usb_cdc_acm.c$248$1$1            usb_cdc_acm
     0C:   00000CE9  G$usbCallbackSetupHandler$0$0      usb_cdc_acm
     0C:   00000CE9  _usbCallbackSetupHandler           usb_cdc_acm
     0C:   00000CEC  A$usb_cdc_acm$891                  usb_cdc_acm
     0C:   00000CED  A$usb_cdc_acm$892                  usb_cdc_acm
     0C:   00000CEE  A$usb_cdc_acm$893                  usb_cdc_acm
     0C:   00000CF1  A$usb_cdc_acm$896                  usb_cdc_acm
     0C:   00000CF1  C$usb_cdc_acm.c$249$1$1            usb_cdc_acm
     0C:   00000CF4  A$usb_cdc_acm$899                  usb_cdc_acm
     0C:   00000CF4  C$usb_cdc_acm.c$251$1$1            usb_cdc_acm
     0C:   00000CF7  A$usb_cdc_acm$900                  usb_cdc_acm
     0C:   00000CF8  A$usb_cdc_acm$901                  usb_cdc_acm
     0C:   00000CF9  A$usb_cdc_acm$902                  usb_cdc_acm
     0C:   00000CFA  A$usb_cdc_acm$903                  usb_cdc_acm
     0C:   00000CFB  A$usb_cdc_acm$904                  usb_cdc_acm
     0C:   00000CFC  A$usb_cdc_acm$905                  usb_cdc_acm
     0C:   00000CFD  A$usb_cdc_acm$906                  usb_cdc_acm
     0C:   00000CFF  A$usb_cdc_acm$909                  usb_cdc_acm
     0C:   00000CFF  C$usb_cdc_acm.c$252$1$1            usb_cdc_acm
     0C:   00000D02  A$usb_cdc_acm$910                  usb_cdc_acm
     0C:   00000D05  A$usb_cdc_acm$914                  usb_cdc_acm
     0C:   00000D05  C$usb_cdc_acm.c$254$1$1            usb_cdc_acm
     0C:   00000D08  A$usb_cdc_acm$915                  usb_cdc_acm
     0C:   00000D09  A$usb_cdc_acm$916                  usb_cdc_acm
     0C:   00000D0A  A$usb_cdc_acm$917                  usb_cdc_acm
     0C:   00000D0D  A$usb_cdc_acm$918                  usb_cdc_acm
     0C:   00000D0F  A$usb_cdc_acm$920                  usb_cdc_acm
ASxxxx Linker V02.00 + NoICE + sdld,  page 125.
Hexadecimal  [32-Bits]

Area                                    Addr        Size        Decimal Bytes (Attributes)
--------------------------------        ----        ----        ------- ----- ------------
CSEG                                00000540    00001C08 =        7176. bytes (REL,CON,CODE)

      Value  Global                              Global Defined In Module
      -----  --------------------------------   ------------------------
     0C:   00000D12  A$usb_cdc_acm$921                  usb_cdc_acm
     0C:   00000D14  A$usb_cdc_acm$925                  usb_cdc_acm
     0C:   00000D14  C$usb_cdc_acm.c$256$2$2            usb_cdc_acm
     0C:   00000D17  A$usb_cdc_acm$926                  usb_cdc_acm
     0C:   00000D19  A$usb_cdc_acm$930                  usb_cdc_acm
     0C:   00000D19  C$usb_cdc_acm.c$257$2$2            usb_cdc_acm
     0C:   00000D1B  A$usb_cdc_acm$931                  usb_cdc_acm
     0C:   00000D1D  A$usb_cdc_acm$932                  usb_cdc_acm
     0C:   00000D1E  A$usb_cdc_acm$933                  usb_cdc_acm
     0C:   00000D1F  A$usb_cdc_acm$934                  usb_cdc_acm
     0C:   00000D21  A$usb_cdc_acm$935                  usb_cdc_acm
     0C:   00000D22  A$usb_cdc_acm$936                  usb_cdc_acm
     0C:   00000D25  A$usb_cdc_acm$937                  usb_cdc_acm
     0C:   00000D28  A$usb_cdc_acm$942                  usb_cdc_acm
     0C:   00000D28  C$usb_cdc_acm.c$258$2$2            usb_cdc_acm
     0C:   00000D28  C$usb_cdc_acm.c$260$2$2            usb_cdc_acm
     0C:   00000D2A  A$usb_cdc_acm$946                  usb_cdc_acm
     0C:   00000D2A  C$usb_cdc_acm.c$261$2$2            usb_cdc_acm
     0C:   00000D2C  A$usb_cdc_acm$947                  usb_cdc_acm
     0C:   00000D2E  A$usb_cdc_acm$948                  usb_cdc_acm
     0C:   00000D2F  A$usb_cdc_acm$949                  usb_cdc_acm
     0C:   00000D30  A$usb_cdc_acm$950                  usb_cdc_acm
     0C:   00000D32  A$usb_cdc_acm$951                  usb_cdc_acm
     0C:   00000D33  A$usb_cdc_acm$952                  usb_cdc_acm
     0C:   00000D36  A$usb_cdc_acm$953                  usb_cdc_acm
     0C:   00000D39  A$usb_cdc_acm$958                  usb_cdc_acm
     0C:   00000D39  C$usb_cdc_acm.c$262$2$2            usb_cdc_acm
     0C:   00000D39  C$usb_cdc_acm.c$264$2$2            usb_cdc_acm
     0C:   00000D3B  A$usb_cdc_acm$962                  usb_cdc_acm
     0C:   00000D3B  C$usb_cdc_acm.c$265$2$2            usb_cdc_acm
     0C:   00000D3E  A$usb_cdc_acm$963                  usb_cdc_acm
     0C:   00000D3F  A$usb_cdc_acm$964                  usb_cdc_acm
     0C:   00000D40  A$usb_cdc_acm$965                  usb_cdc_acm
     0C:   00000D41  A$usb_cdc_acm$966                  usb_cdc_acm
     0C:   00000D42  A$usb_cdc_acm$967                  usb_cdc_acm
     0C:   00000D44  A$usb_cdc_acm$968                  usb_cdc_acm
     0C:   00000D45  A$usb_cdc_acm$969                  usb_cdc_acm
     0C:   00000D46  A$usb_cdc_acm$972                  usb_cdc_acm
     0C:   00000D46  C$usb_cdc_acm.c$266$2$2            usb_cdc_acm
     0C:   00000D49  A$usb_cdc_acm$978                  usb_cdc_acm
     0C:   00000D49  C$usb_cdc_acm.c$268$1$1            usb_cdc_acm
     0C:   00000D49  C$usb_cdc_acm.c$269$1$1            usb_cdc_acm
     0C:   00000D49  XG$usbCallbackSetupHandler$0$0     usb_cdc_acm
     0C:   00000D4A  A$usb_cdc_acm$993                  usb_cdc_acm
     0C:   00000D4A  C$usb_cdc_acm.c$271$1$1            usb_cdc_acm
     0C:   00000D4A  C$usb_cdc_acm.c$274$1$1            usb_cdc_acm
     0C:   00000D4A  G$usbCallbackClassDescriptorHand   usb_cdc_acm
     0C:   00000D4A  XG$usbCallbackClassDescriptorHan   usb_cdc_acm
     0C:   00000D4A  _usbCallbackClassDescriptorHandl   usb_cdc_acm
     0C:   00000D4B  A$usb_cdc_acm$1008                 usb_cdc_acm
     0C:   00000D4B  C$usb_cdc_acm.c$276$1$1            usb_cdc_acm
ASxxxx Linker V02.00 + NoICE + sdld,  page 126.
Hexadecimal  [32-Bits]

Area                                    Addr        Size        Decimal Bytes (Attributes)
--------------------------------        ----        ----        ------- ----- ------------
CSEG                                00000540    00001C08 =        7176. bytes (REL,CON,CODE)

      Value  Global                              Global Defined In Module
      -----  --------------------------------   ------------------------
     0C:   00000D4B  C$usb_cdc_acm.c$279$1$1            usb_cdc_acm
     0C:   00000D4B  Fusb_cdc_acm$doNothing$0$0         usb_cdc_acm
     0C:   00000D4B  XFusb_cdc_acm$doNothing$0$0        usb_cdc_acm
     0C:   00000D4C  A$usb_cdc_acm$1021                 usb_cdc_acm
     0C:   00000D4C  C$usb_cdc_acm.c$281$1$1            usb_cdc_acm
     0C:   00000D4C  C$usb_cdc_acm.c$283$1$1            usb_cdc_acm
     0C:   00000D4C  G$usbCallbackControlWriteHandler   usb_cdc_acm
     0C:   00000D4C  _usbCallbackControlWriteHandler    usb_cdc_acm
     0C:   00000D4E  A$usb_cdc_acm$1022                 usb_cdc_acm
     0C:   00000D4F  A$usb_cdc_acm$1023                 usb_cdc_acm
     0C:   00000D51  A$usb_cdc_acm$1024                 usb_cdc_acm
     0C:   00000D52  A$usb_cdc_acm$1025                 usb_cdc_acm
     0C:   00000D53  A$usb_cdc_acm$1026                 usb_cdc_acm
     0C:   00000D55  A$usb_cdc_acm$1027                 usb_cdc_acm
     0C:   00000D58  A$usb_cdc_acm$1030                 usb_cdc_acm
     0C:   00000D58  C$usb_cdc_acm.c$285$1$1            usb_cdc_acm
     0C:   00000D5B  A$usb_cdc_acm$1031                 usb_cdc_acm
     0C:   00000D5C  A$usb_cdc_acm$1032                 usb_cdc_acm
     0C:   00000D5D  A$usb_cdc_acm$1033                 usb_cdc_acm
     0C:   00000D5E  A$usb_cdc_acm$1034                 usb_cdc_acm
     0C:   00000D5F  A$usb_cdc_acm$1035                 usb_cdc_acm
     0C:   00000D60  A$usb_cdc_acm$1036                 usb_cdc_acm
     0C:   00000D61  A$usb_cdc_acm$1037                 usb_cdc_acm
     0C:   00000D62  A$usb_cdc_acm$1038                 usb_cdc_acm
     0C:   00000D63  A$usb_cdc_acm$1039                 usb_cdc_acm
     0C:   00000D64  A$usb_cdc_acm$1040                 usb_cdc_acm
     0C:   00000D65  A$usb_cdc_acm$1041                 usb_cdc_acm
     0C:   00000D66  A$usb_cdc_acm$1042                 usb_cdc_acm
     0C:   00000D69  A$usb_cdc_acm$1043                 usb_cdc_acm
     0C:   00000D6C  A$usb_cdc_acm$1044                 usb_cdc_acm
     0C:   00000D6F  A$usb_cdc_acm$1045                 usb_cdc_acm
     0C:   00000D72  A$usb_cdc_acm$1046                 usb_cdc_acm
     0C:   00000D75  A$usb_cdc_acm$1049                 usb_cdc_acm
     0C:   00000D75  C$usb_cdc_acm.c$290$2$2            usb_cdc_acm
     0C:   00000D77  A$usb_cdc_acm$1052                 usb_cdc_acm
     0C:   00000D77  C$usb_cdc_acm.c$291$2$2            usb_cdc_acm
     0C:   00000D7A  A$usb_cdc_acm$1053                 usb_cdc_acm
     0C:   00000D7C  A$usb_cdc_acm$1054                 usb_cdc_acm
     0C:   00000D7E  A$usb_cdc_acm$1055                 usb_cdc_acm
     0C:   00000D80  A$usb_cdc_acm$1056                 usb_cdc_acm
     0C:   00000D81  A$usb_cdc_acm$1057                 usb_cdc_acm
     0C:   00000D84  A$usb_cdc_acm$1058                 usb_cdc_acm
     0C:   00000D85  A$usb_cdc_acm$1059                 usb_cdc_acm
     0C:   00000D86  A$usb_cdc_acm$1063                 usb_cdc_acm
     0C:   00000D86  C$usb_cdc_acm.c$293$2$1            usb_cdc_acm
     0C:   00000D86  XG$usbCallbackControlWriteHandle   usb_cdc_acm
     0C:   00000D87  A$usb_cdc_acm$1076                 usb_cdc_acm
     0C:   00000D87  C$usb_cdc_acm.c$299$2$1            usb_cdc_acm
     0C:   00000D87  C$usb_cdc_acm.c$301$1$1            usb_cdc_acm
     0C:   00000D87  G$usbComRxAvailable$0$0            usb_cdc_acm
     0C:   00000D87  _usbComRxAvailable                 usb_cdc_acm
ASxxxx Linker V02.00 + NoICE + sdld,  page 127.
Hexadecimal  [32-Bits]

Area                                    Addr        Size        Decimal Bytes (Attributes)
--------------------------------        ----        ----        ------- ----- ------------
CSEG                                00000540    00001C08 =        7176. bytes (REL,CON,CODE)

      Value  Global                              Global Defined In Module
      -----  --------------------------------   ------------------------
     0C:   00000D8A  A$usb_cdc_acm$1077                 usb_cdc_acm
     0C:   00000D8B  A$usb_cdc_acm$1078                 usb_cdc_acm
     0C:   00000D8C  A$usb_cdc_acm$1079                 usb_cdc_acm
     0C:   00000D8F  A$usb_cdc_acm$1080                 usb_cdc_acm
     0C:   00000D91  A$usb_cdc_acm$1084                 usb_cdc_acm
     0C:   00000D91  C$usb_cdc_acm.c$304$2$2            usb_cdc_acm
     0C:   00000D94  A$usb_cdc_acm$1085                 usb_cdc_acm
     0C:   00000D96  A$usb_cdc_acm$1089                 usb_cdc_acm
     0C:   00000D96  C$usb_cdc_acm.c$307$1$1            usb_cdc_acm
     0C:   00000D99  A$usb_cdc_acm$1090                 usb_cdc_acm
     0C:   00000D9B  A$usb_cdc_acm$1091                 usb_cdc_acm
     0C:   00000D9C  A$usb_cdc_acm$1094                 usb_cdc_acm
     0C:   00000D9C  C$usb_cdc_acm.c$308$1$1            usb_cdc_acm
     0C:   00000D9F  A$usb_cdc_acm$1095                 usb_cdc_acm
     0C:   00000DA0  A$usb_cdc_acm$1096                 usb_cdc_acm
     0C:   00000DA1  A$usb_cdc_acm$1097                 usb_cdc_acm
     0C:   00000DA4  A$usb_cdc_acm$1100                 usb_cdc_acm
     0C:   00000DA4  C$usb_cdc_acm.c$312$2$3            usb_cdc_acm
     0C:   00000DA7  A$usb_cdc_acm$1101                 usb_cdc_acm
     0C:   00000DA8  A$usb_cdc_acm$1102                 usb_cdc_acm
     0C:   00000DA9  A$usb_cdc_acm$1103                 usb_cdc_acm
     0C:   00000DAB  A$usb_cdc_acm$1104                 usb_cdc_acm
     0C:   00000DAD  A$usb_cdc_acm$1108                 usb_cdc_acm
     0C:   00000DAD  C$usb_cdc_acm.c$316$2$4            usb_cdc_acm
     0C:   00000DB0  A$usb_cdc_acm$1112                 usb_cdc_acm
     0C:   00000DB0  C$usb_cdc_acm.c$318$1$1            usb_cdc_acm
     0C:   00000DB0  XG$usbComRxAvailable$0$0           usb_cdc_acm
     0C:   00000DB1  A$usb_cdc_acm$1125                 usb_cdc_acm
     0C:   00000DB1  C$usb_cdc_acm.c$325$1$1            usb_cdc_acm
     0C:   00000DB1  C$usb_cdc_acm.c$329$1$1            usb_cdc_acm
     0C:   00000DB1  G$usbComRxReceiveByte$0$0          usb_cdc_acm
     0C:   00000DB1  _usbComRxReceiveByte               usb_cdc_acm
     0C:   00000DB4  A$usb_cdc_acm$1126                 usb_cdc_acm
     0C:   00000DB6  A$usb_cdc_acm$1127                 usb_cdc_acm
     0C:   00000DB7  A$usb_cdc_acm$1130                 usb_cdc_acm
     0C:   00000DB7  C$usb_cdc_acm.c$330$1$1            usb_cdc_acm
     0C:   00000DBA  A$usb_cdc_acm$1131                 usb_cdc_acm
     0C:   00000DBB  A$usb_cdc_acm$1132                 usb_cdc_acm
     0C:   00000DBC  A$usb_cdc_acm$1135                 usb_cdc_acm
     0C:   00000DBC  C$usb_cdc_acm.c$332$1$1            usb_cdc_acm
     0C:   00000DBF  A$usb_cdc_acm$1136                 usb_cdc_acm
     0C:   00000DC0  A$usb_cdc_acm$1137                 usb_cdc_acm
     0C:   00000DC1  A$usb_cdc_acm$1138                 usb_cdc_acm
     0C:   00000DC3  A$usb_cdc_acm$1141                 usb_cdc_acm
     0C:   00000DC3  C$usb_cdc_acm.c$334$2$2            usb_cdc_acm
     0C:   00000DC6  A$usb_cdc_acm$1142                 usb_cdc_acm
     0C:   00000DC7  A$usb_cdc_acm$1143                 usb_cdc_acm
     0C:   00000DC9  A$usb_cdc_acm$1144                 usb_cdc_acm
     0C:   00000DCA  A$usb_cdc_acm$1145                 usb_cdc_acm
     0C:   00000DCB  A$usb_cdc_acm$1149                 usb_cdc_acm
     0C:   00000DCB  C$usb_cdc_acm.c$337$1$1            usb_cdc_acm
ASxxxx Linker V02.00 + NoICE + sdld,  page 128.
Hexadecimal  [32-Bits]

Area                                    Addr        Size        Decimal Bytes (Attributes)
--------------------------------        ----        ----        ------- ----- ------------
CSEG                                00000540    00001C08 =        7176. bytes (REL,CON,CODE)

      Value  Global                              Global Defined In Module
      -----  --------------------------------   ------------------------
     0C:   00000DCD  A$usb_cdc_acm$1152                 usb_cdc_acm
     0C:   00000DCD  C$usb_cdc_acm.c$338$1$1            usb_cdc_acm
     0C:   00000DCF  A$usb_cdc_acm$1155                 usb_cdc_acm
     0C:   00000DCF  C$usb_cdc_acm.c$339$1$1            usb_cdc_acm
     0C:   00000DCF  XG$usbComRxReceiveByte$0$0         usb_cdc_acm
     0C:   00000DD0  A$usb_cdc_acm$1166                 usb_cdc_acm
     0C:   00000DD0  C$usb_cdc_acm.c$343$1$1            usb_cdc_acm
     0C:   00000DD0  G$usbComRxReceive$0$0              usb_cdc_acm
     0C:   00000DD0  _usbComRxReceive                   usb_cdc_acm
     0C:   00000DD2  A$usb_cdc_acm$1167                 usb_cdc_acm
     0C:   00000DD4  A$usb_cdc_acm$1170                 usb_cdc_acm
     0C:   00000DD4  C$usb_cdc_acm.c$345$1$1            usb_cdc_acm
     0C:   00000DD6  A$usb_cdc_acm$1171                 usb_cdc_acm
     0C:   00000DD8  A$usb_cdc_acm$1172                 usb_cdc_acm
     0C:   00000DD9  A$usb_cdc_acm$1173                 usb_cdc_acm
     0C:   00000DDA  A$usb_cdc_acm$1174                 usb_cdc_acm
     0C:   00000DDC  A$usb_cdc_acm$1175                 usb_cdc_acm
     0C:   00000DDD  A$usb_cdc_acm$1176                 usb_cdc_acm
     0C:   00000DDE  A$usb_cdc_acm$1177                 usb_cdc_acm
     0C:   00000DDF  A$usb_cdc_acm$1178                 usb_cdc_acm
     0C:   00000DE0  A$usb_cdc_acm$1179                 usb_cdc_acm
     0C:   00000DE1  A$usb_cdc_acm$1180                 usb_cdc_acm
     0C:   00000DE4  A$usb_cdc_acm$1181                 usb_cdc_acm
     0C:   00000DE7  A$usb_cdc_acm$1184                 usb_cdc_acm
     0C:   00000DE7  C$usb_cdc_acm.c$347$1$1            usb_cdc_acm
     0C:   00000DEA  A$usb_cdc_acm$1185                 usb_cdc_acm
     0C:   00000DEB  A$usb_cdc_acm$1186                 usb_cdc_acm
     0C:   00000DEC  A$usb_cdc_acm$1187                 usb_cdc_acm
     0C:   00000DEE  A$usb_cdc_acm$1190                 usb_cdc_acm
     0C:   00000DEE  C$usb_cdc_acm.c$349$2$2            usb_cdc_acm
     0C:   00000DF1  A$usb_cdc_acm$1191                 usb_cdc_acm
     0C:   00000DF2  A$usb_cdc_acm$1192                 usb_cdc_acm
     0C:   00000DF4  A$usb_cdc_acm$1193                 usb_cdc_acm
     0C:   00000DF5  A$usb_cdc_acm$1194                 usb_cdc_acm
     0C:   00000DF6  A$usb_cdc_acm$1198                 usb_cdc_acm
     0C:   00000DF6  C$usb_cdc_acm.c$351$2$1            usb_cdc_acm
     0C:   00000DF6  XG$usbComRxReceive$0$0             usb_cdc_acm
     0C:   00000DF7  A$usb_cdc_acm$1211                 usb_cdc_acm
     0C:   00000DF7  C$usb_cdc_acm.c$358$2$1            usb_cdc_acm
     0C:   00000DF7  C$usb_cdc_acm.c$360$1$1            usb_cdc_acm
     0C:   00000DF7  Fusb_cdc_acm$sendPacketNow$0$0     usb_cdc_acm
     0C:   00000DFA  A$usb_cdc_acm$1212                 usb_cdc_acm
     0C:   00000DFC  A$usb_cdc_acm$1213                 usb_cdc_acm
     0C:   00000DFD  A$usb_cdc_acm$1216                 usb_cdc_acm
     0C:   00000DFD  C$usb_cdc_acm.c$361$1$1            usb_cdc_acm
     0C:   00000E00  A$usb_cdc_acm$1217                 usb_cdc_acm
     0C:   00000E01  A$usb_cdc_acm$1218                 usb_cdc_acm
     0C:   00000E02  A$usb_cdc_acm$1219                 usb_cdc_acm
     0C:   00000E04  A$usb_cdc_acm$1220                 usb_cdc_acm
     0C:   00000E05  A$usb_cdc_acm$1223                 usb_cdc_acm
     0C:   00000E05  C$usb_cdc_acm.c$364$1$1            usb_cdc_acm
ASxxxx Linker V02.00 + NoICE + sdld,  page 129.
Hexadecimal  [32-Bits]

Area                                    Addr        Size        Decimal Bytes (Attributes)
--------------------------------        ----        ----        ------- ----- ------------
CSEG                                00000540    00001C08 =        7176. bytes (REL,CON,CODE)

      Value  Global                              Global Defined In Module
      -----  --------------------------------   ------------------------
     0C:   00000E07  A$usb_cdc_acm$1224                 usb_cdc_acm
     0C:   00000E0A  A$usb_cdc_acm$1225                 usb_cdc_acm
     0C:   00000E0B  A$usb_cdc_acm$1226                 usb_cdc_acm
     0C:   00000E0D  A$usb_cdc_acm$1228                 usb_cdc_acm
     0C:   00000E0E  A$usb_cdc_acm$1230                 usb_cdc_acm
     0C:   00000E10  A$usb_cdc_acm$1231                 usb_cdc_acm
     0C:   00000E12  A$usb_cdc_acm$1234                 usb_cdc_acm
     0C:   00000E12  C$usb_cdc_acm.c$367$1$1            usb_cdc_acm
     0C:   00000E15  A$usb_cdc_acm$1237                 usb_cdc_acm
     0C:   00000E15  C$usb_cdc_acm.c$370$1$1            usb_cdc_acm
     0C:   00000E17  A$usb_cdc_acm$1240                 usb_cdc_acm
     0C:   00000E17  C$usb_cdc_acm.c$371$1$1            usb_cdc_acm
     0C:   00000E17  XFusb_cdc_acm$sendPacketNow$0$0    usb_cdc_acm
     0C:   00000E18  A$usb_cdc_acm$1253                 usb_cdc_acm
     0C:   00000E18  C$usb_cdc_acm.c$373$1$1            usb_cdc_acm
     0C:   00000E18  C$usb_cdc_acm.c$375$1$1            usb_cdc_acm
     0C:   00000E18  G$usbComService$0$0                usb_cdc_acm
     0C:   00000E18  _usbComService                     usb_cdc_acm
     0C:   00000E1B  A$usb_cdc_acm$1256                 usb_cdc_acm
     0C:   00000E1B  C$usb_cdc_acm.c$378$1$1            usb_cdc_acm
     0C:   00000E1E  A$usb_cdc_acm$1257                 usb_cdc_acm
     0C:   00000E21  A$usb_cdc_acm$1258                 usb_cdc_acm
     0C:   00000E23  A$usb_cdc_acm$1259                 usb_cdc_acm
     0C:   00000E25  A$usb_cdc_acm$1260                 usb_cdc_acm
     0C:   00000E27  A$usb_cdc_acm$1261                 usb_cdc_acm
     0C:   00000E2A  A$usb_cdc_acm$1262                 usb_cdc_acm
     0C:   00000E2B  A$usb_cdc_acm$1263                 usb_cdc_acm
     0C:   00000E2C  A$usb_cdc_acm$1264                 usb_cdc_acm
     0C:   00000E2D  A$usb_cdc_acm$1265                 usb_cdc_acm
     0C:   00000E2E  A$usb_cdc_acm$1266                 usb_cdc_acm
     0C:   00000E2F  A$usb_cdc_acm$1267                 usb_cdc_acm
     0C:   00000E30  A$usb_cdc_acm$1268                 usb_cdc_acm
     0C:   00000E32  A$usb_cdc_acm$1269                 usb_cdc_acm
     0C:   00000E34  A$usb_cdc_acm$1272                 usb_cdc_acm
     0C:   00000E34  C$usb_cdc_acm.c$388$2$2            usb_cdc_acm
     0C:   00000E37  A$usb_cdc_acm$1276                 usb_cdc_acm
     0C:   00000E37  C$usb_cdc_acm.c$391$1$1            usb_cdc_acm
     0C:   00000E3A  A$usb_cdc_acm$1277                 usb_cdc_acm
     0C:   00000E3B  A$usb_cdc_acm$1278                 usb_cdc_acm
     0C:   00000E3C  A$usb_cdc_acm$1279                 usb_cdc_acm
     0C:   00000E3F  A$usb_cdc_acm$1280                 usb_cdc_acm
     0C:   00000E41  A$usb_cdc_acm$1284                 usb_cdc_acm
     0C:   00000E41  C$usb_cdc_acm.c$394$2$3            usb_cdc_acm
     0C:   00000E43  A$usb_cdc_acm$1288                 usb_cdc_acm
     0C:   00000E43  C$usb_cdc_acm.c$402$1$1            usb_cdc_acm
     0C:   00000E46  A$usb_cdc_acm$1289                 usb_cdc_acm
     0C:   00000E48  A$usb_cdc_acm$1290                 usb_cdc_acm
     0C:   00000E49  A$usb_cdc_acm$1293                 usb_cdc_acm
     0C:   00000E49  C$usb_cdc_acm.c$403$1$1            usb_cdc_acm
     0C:   00000E4B  A$usb_cdc_acm$1294                 usb_cdc_acm
     0C:   00000E4D  A$usb_cdc_acm$1295                 usb_cdc_acm
ASxxxx Linker V02.00 + NoICE + sdld,  page 130.
Hexadecimal  [32-Bits]

Area                                    Addr        Size        Decimal Bytes (Attributes)
--------------------------------        ----        ----        ------- ----- ------------
CSEG                                00000540    00001C08 =        7176. bytes (REL,CON,CODE)

      Value  Global                              Global Defined In Module
      -----  --------------------------------   ------------------------
     0C:   00000E50  A$usb_cdc_acm$1296                 usb_cdc_acm
     0C:   00000E53  A$usb_cdc_acm$1297                 usb_cdc_acm
     0C:   00000E54  A$usb_cdc_acm$1298                 usb_cdc_acm
     0C:   00000E55  A$usb_cdc_acm$1299                 usb_cdc_acm
     0C:   00000E58  A$usb_cdc_acm$1303                 usb_cdc_acm
     0C:   00000E58  C$usb_cdc_acm.c$405$2$4            usb_cdc_acm
     0C:   00000E5B  A$usb_cdc_acm$1307                 usb_cdc_acm
     0C:   00000E5B  C$usb_cdc_acm.c$409$1$1            usb_cdc_acm
     0C:   00000E5E  A$usb_cdc_acm$1308                 usb_cdc_acm
     0C:   00000E60  A$usb_cdc_acm$1309                 usb_cdc_acm
     0C:   00000E61  A$usb_cdc_acm$1312                 usb_cdc_acm
     0C:   00000E61  C$usb_cdc_acm.c$410$1$1            usb_cdc_acm
     0C:   00000E63  A$usb_cdc_acm$1313                 usb_cdc_acm
     0C:   00000E65  A$usb_cdc_acm$1314                 usb_cdc_acm
     0C:   00000E66  A$usb_cdc_acm$1315                 usb_cdc_acm
     0C:   00000E68  A$usb_cdc_acm$1316                 usb_cdc_acm
     0C:   00000E69  A$usb_cdc_acm$1317                 usb_cdc_acm
     0C:   00000E6C  A$usb_cdc_acm$1318                 usb_cdc_acm
     0C:   00000E6E  A$usb_cdc_acm$1320                 usb_cdc_acm
     0C:   00000E71  A$usb_cdc_acm$1321                 usb_cdc_acm
     0C:   00000E72  A$usb_cdc_acm$1322                 usb_cdc_acm
     0C:   00000E73  A$usb_cdc_acm$1323                 usb_cdc_acm
     0C:   00000E76  A$usb_cdc_acm$1330                 usb_cdc_acm
     0C:   00000E76  C$usb_cdc_acm.c$416$2$5            usb_cdc_acm
     0C:   00000E76  C$usb_cdc_acm.c$417$2$5            usb_cdc_acm
     0C:   00000E76  C$usb_cdc_acm.c$420$2$5            usb_cdc_acm
     0C:   00000E79  A$usb_cdc_acm$1331                 usb_cdc_acm
     0C:   00000E7B  A$usb_cdc_acm$1332                 usb_cdc_acm
     0C:   00000E7C  A$usb_cdc_acm$1333                 usb_cdc_acm
     0C:   00000E7E  A$usb_cdc_acm$1334                 usb_cdc_acm
     0C:   00000E7F  A$usb_cdc_acm$1341                 usb_cdc_acm
     0C:   00000E7F  C$usb_cdc_acm.c$421$2$5            usb_cdc_acm
     0C:   00000E7F  C$usb_cdc_acm.c$424$2$5            usb_cdc_acm
     0C:   00000E7F  C$usb_cdc_acm.c$425$2$5            usb_cdc_acm
     0C:   00000E80  A$usb_cdc_acm$1342                 usb_cdc_acm
     0C:   00000E81  A$usb_cdc_acm$1343                 usb_cdc_acm
     0C:   00000E84  A$usb_cdc_acm$1344                 usb_cdc_acm
     0C:   00000E85  A$usb_cdc_acm$1345                 usb_cdc_acm
     0C:   00000E88  A$usb_cdc_acm$1346                 usb_cdc_acm
     0C:   00000E89  A$usb_cdc_acm$1347                 usb_cdc_acm
     0C:   00000E8C  A$usb_cdc_acm$1348                 usb_cdc_acm
     0C:   00000E8D  A$usb_cdc_acm$1353                 usb_cdc_acm
     0C:   00000E8D  C$usb_cdc_acm.c$428$2$5            usb_cdc_acm
     0C:   00000E8D  C$usb_cdc_acm.c$429$2$5            usb_cdc_acm
     0C:   00000E90  A$usb_cdc_acm$1354                 usb_cdc_acm
     0C:   00000E92  A$usb_cdc_acm$1355                 usb_cdc_acm
     0C:   00000E93  A$usb_cdc_acm$1356                 usb_cdc_acm
     0C:   00000E94  A$usb_cdc_acm$1357                 usb_cdc_acm
     0C:   00000E95  A$usb_cdc_acm$1360                 usb_cdc_acm
     0C:   00000E95  C$usb_cdc_acm.c$432$2$5            usb_cdc_acm
     0C:   00000E97  A$usb_cdc_acm$1361                 usb_cdc_acm
ASxxxx Linker V02.00 + NoICE + sdld,  page 131.
Hexadecimal  [32-Bits]

Area                                    Addr        Size        Decimal Bytes (Attributes)
--------------------------------        ----        ----        ------- ----- ------------
CSEG                                00000540    00001C08 =        7176. bytes (REL,CON,CODE)

      Value  Global                              Global Defined In Module
      -----  --------------------------------   ------------------------
     0C:   00000E9A  A$usb_cdc_acm$1362                 usb_cdc_acm
     0C:   00000E9B  A$usb_cdc_acm$1363                 usb_cdc_acm
     0C:   00000E9C  A$usb_cdc_acm$1366                 usb_cdc_acm
     0C:   00000E9C  C$usb_cdc_acm.c$433$2$5            usb_cdc_acm
     0C:   00000E9F  A$usb_cdc_acm$1367                 usb_cdc_acm
     0C:   00000EA0  A$usb_cdc_acm$1368                 usb_cdc_acm
     0C:   00000EA1  A$usb_cdc_acm$1371                 usb_cdc_acm
     0C:   00000EA1  C$usb_cdc_acm.c$435$2$5            usb_cdc_acm
     0C:   00000EA4  A$usb_cdc_acm$1372                 usb_cdc_acm
     0C:   00000EA5  A$usb_cdc_acm$1373                 usb_cdc_acm
     0C:   00000EA7  A$usb_cdc_acm$1374                 usb_cdc_acm
     0C:   00000EA8  A$usb_cdc_acm$1377                 usb_cdc_acm
     0C:   00000EA8  C$usb_cdc_acm.c$438$2$5            usb_cdc_acm
     0C:   00000EAA  A$usb_cdc_acm$1378                 usb_cdc_acm
     0C:   00000EAB  A$usb_cdc_acm$1379                 usb_cdc_acm
     0C:   00000EAC  A$usb_cdc_acm$1380                 usb_cdc_acm
     0C:   00000EAF  A$usb_cdc_acm$1381                 usb_cdc_acm
     0C:   00000EB1  A$usb_cdc_acm$1382                 usb_cdc_acm
     0C:   00000EB2  A$usb_cdc_acm$1383                 usb_cdc_acm
     0C:   00000EB3  A$usb_cdc_acm$1386                 usb_cdc_acm
     0C:   00000EB3  C$usb_cdc_acm.c$440$2$5            usb_cdc_acm
     0C:   00000EB5  A$usb_cdc_acm$1387                 usb_cdc_acm
     0C:   00000EB6  A$usb_cdc_acm$1388                 usb_cdc_acm
     0C:   00000EB7  A$usb_cdc_acm$1389                 usb_cdc_acm
     0C:   00000EB9  A$usb_cdc_acm$1390                 usb_cdc_acm
     0C:   00000EBA  A$usb_cdc_acm$1393                 usb_cdc_acm
     0C:   00000EBA  C$usb_cdc_acm.c$443$2$5            usb_cdc_acm
     0C:   00000EBC  A$usb_cdc_acm$1397                 usb_cdc_acm
     0C:   00000EBC  C$usb_cdc_acm.c$445$2$1            usb_cdc_acm
     0C:   00000EBC  XG$usbComService$0$0               usb_cdc_acm
     0C:   00000EBD  A$usb_cdc_acm$1410                 usb_cdc_acm
     0C:   00000EBD  C$usb_cdc_acm.c$449$2$1            usb_cdc_acm
     0C:   00000EBD  C$usb_cdc_acm.c$453$1$1            usb_cdc_acm
     0C:   00000EBD  G$usbComTxAvailable$0$0            usb_cdc_acm
     0C:   00000EBD  _usbComTxAvailable                 usb_cdc_acm
     0C:   00000EC0  A$usb_cdc_acm$1411                 usb_cdc_acm
     0C:   00000EC1  A$usb_cdc_acm$1412                 usb_cdc_acm
     0C:   00000EC2  A$usb_cdc_acm$1413                 usb_cdc_acm
     0C:   00000EC5  A$usb_cdc_acm$1414                 usb_cdc_acm
     0C:   00000EC7  A$usb_cdc_acm$1418                 usb_cdc_acm
     0C:   00000EC7  C$usb_cdc_acm.c$456$2$2            usb_cdc_acm
     0C:   00000ECA  A$usb_cdc_acm$1419                 usb_cdc_acm
     0C:   00000ECC  A$usb_cdc_acm$1423                 usb_cdc_acm
     0C:   00000ECC  C$usb_cdc_acm.c$459$1$1            usb_cdc_acm
     0C:   00000ECF  A$usb_cdc_acm$1424                 usb_cdc_acm
     0C:   00000ED1  A$usb_cdc_acm$1425                 usb_cdc_acm
     0C:   00000ED2  A$usb_cdc_acm$1428                 usb_cdc_acm
     0C:   00000ED2  C$usb_cdc_acm.c$460$1$1            usb_cdc_acm
     0C:   00000ED5  A$usb_cdc_acm$1429                 usb_cdc_acm
     0C:   00000ED6  A$usb_cdc_acm$1432                 usb_cdc_acm
     0C:   00000ED6  C$usb_cdc_acm.c$461$1$1            usb_cdc_acm
ASxxxx Linker V02.00 + NoICE + sdld,  page 132.
Hexadecimal  [32-Bits]

Area                                    Addr        Size        Decimal Bytes (Attributes)
--------------------------------        ----        ----        ------- ----- ------------
CSEG                                00000540    00001C08 =        7176. bytes (REL,CON,CODE)

      Value  Global                              Global Defined In Module
      -----  --------------------------------   ------------------------
     0C:   00000ED7  A$usb_cdc_acm$1433                 usb_cdc_acm
     0C:   00000EDA  A$usb_cdc_acm$1436                 usb_cdc_acm
     0C:   00000EDA  C$usb_cdc_acm.c$463$2$3            usb_cdc_acm
     0C:   00000EDB  A$usb_cdc_acm$1437                 usb_cdc_acm
     0C:   00000EDE  A$usb_cdc_acm$1440                 usb_cdc_acm
     0C:   00000EDE  C$usb_cdc_acm.c$465$3$4            usb_cdc_acm
     0C:   00000EE1  A$usb_cdc_acm$1441                 usb_cdc_acm
     0C:   00000EE3  A$usb_cdc_acm$1445                 usb_cdc_acm
     0C:   00000EE3  C$usb_cdc_acm.c$467$2$3            usb_cdc_acm
     0C:   00000EE5  A$usb_cdc_acm$1446                 usb_cdc_acm
     0C:   00000EE6  A$usb_cdc_acm$1447                 usb_cdc_acm
     0C:   00000EE8  A$usb_cdc_acm$1448                 usb_cdc_acm
     0C:   00000EEA  A$usb_cdc_acm$1449                 usb_cdc_acm
     0C:   00000EEC  A$usb_cdc_acm$1453                 usb_cdc_acm
     0C:   00000EEC  C$usb_cdc_acm.c$471$2$5            usb_cdc_acm
     0C:   00000EEE  A$usb_cdc_acm$1454                 usb_cdc_acm
     0C:   00000EEF  A$usb_cdc_acm$1455                 usb_cdc_acm
     0C:   00000EF1  A$usb_cdc_acm$1456                 usb_cdc_acm
     0C:   00000EF3  A$usb_cdc_acm$1460                 usb_cdc_acm
     0C:   00000EF3  C$usb_cdc_acm.c$473$1$1            usb_cdc_acm
     0C:   00000EF3  XG$usbComTxAvailable$0$0           usb_cdc_acm
     0C:   00000EF4  A$usb_cdc_acm$1471                 usb_cdc_acm
     0C:   00000EF4  C$usb_cdc_acm.c$477$1$1            usb_cdc_acm
     0C:   00000EF4  G$usbComTxSend$0$0                 usb_cdc_acm
     0C:   00000EF4  _usbComTxSend                      usb_cdc_acm
     0C:   00000EF6  A$usb_cdc_acm$1472                 usb_cdc_acm
     0C:   00000EF8  A$usb_cdc_acm$1476                 usb_cdc_acm
     0C:   00000EF8  C$usb_cdc_acm.c$480$1$1            usb_cdc_acm
     0C:   00000EFA  A$usb_cdc_acm$1477                 usb_cdc_acm
     0C:   00000EFB  A$usb_cdc_acm$1478                 usb_cdc_acm
     0C:   00000EFD  A$usb_cdc_acm$1481                 usb_cdc_acm
     0C:   00000EFD  C$usb_cdc_acm.c$482$2$2            usb_cdc_acm
     0C:   00000EFF  A$usb_cdc_acm$1482                 usb_cdc_acm
     0C:   00000F00  A$usb_cdc_acm$1483                 usb_cdc_acm
     0C:   00000F02  A$usb_cdc_acm$1484                 usb_cdc_acm
     0C:   00000F03  A$usb_cdc_acm$1487                 usb_cdc_acm
     0C:   00000F03  C$usb_cdc_acm.c$483$2$2            usb_cdc_acm
     0C:   00000F05  A$usb_cdc_acm$1488                 usb_cdc_acm
     0C:   00000F06  A$usb_cdc_acm$1489                 usb_cdc_acm
     0C:   00000F07  A$usb_cdc_acm$1490                 usb_cdc_acm
     0C:   00000F08  A$usb_cdc_acm$1491                 usb_cdc_acm
     0C:   00000F0A  A$usb_cdc_acm$1492                 usb_cdc_acm
     0C:   00000F0C  A$usb_cdc_acm$1493                 usb_cdc_acm
     0C:   00000F0D  A$usb_cdc_acm$1494                 usb_cdc_acm
     0C:   00000F0E  A$usb_cdc_acm$1498                 usb_cdc_acm
     0C:   00000F0E  C$usb_cdc_acm.c$485$2$2            usb_cdc_acm
     0C:   00000F10  A$usb_cdc_acm$1499                 usb_cdc_acm
     0C:   00000F11  A$usb_cdc_acm$1500                 usb_cdc_acm
     0C:   00000F12  A$usb_cdc_acm$1501                 usb_cdc_acm
     0C:   00000F14  A$usb_cdc_acm$1502                 usb_cdc_acm
     0C:   00000F15  A$usb_cdc_acm$1503                 usb_cdc_acm
ASxxxx Linker V02.00 + NoICE + sdld,  page 133.
Hexadecimal  [32-Bits]

Area                                    Addr        Size        Decimal Bytes (Attributes)
--------------------------------        ----        ----        ------- ----- ------------
CSEG                                00000540    00001C08 =        7176. bytes (REL,CON,CODE)

      Value  Global                              Global Defined In Module
      -----  --------------------------------   ------------------------
     0C:   00000F16  A$usb_cdc_acm$1504                 usb_cdc_acm
     0C:   00000F17  A$usb_cdc_acm$1505                 usb_cdc_acm
     0C:   00000F18  A$usb_cdc_acm$1506                 usb_cdc_acm
     0C:   00000F19  A$usb_cdc_acm$1507                 usb_cdc_acm
     0C:   00000F1C  A$usb_cdc_acm$1508                 usb_cdc_acm
     0C:   00000F1E  A$usb_cdc_acm$1509                 usb_cdc_acm
     0C:   00000F20  A$usb_cdc_acm$1510                 usb_cdc_acm
     0C:   00000F22  A$usb_cdc_acm$1511                 usb_cdc_acm
     0C:   00000F25  A$usb_cdc_acm$1512                 usb_cdc_acm
     0C:   00000F27  A$usb_cdc_acm$1513                 usb_cdc_acm
     0C:   00000F29  A$usb_cdc_acm$1514                 usb_cdc_acm
     0C:   00000F2B  A$usb_cdc_acm$1517                 usb_cdc_acm
     0C:   00000F2B  C$usb_cdc_acm.c$487$2$2            usb_cdc_acm
     0C:   00000F2C  A$usb_cdc_acm$1518                 usb_cdc_acm
     0C:   00000F2D  A$usb_cdc_acm$1519                 usb_cdc_acm
     0C:   00000F2E  A$usb_cdc_acm$1520                 usb_cdc_acm
     0C:   00000F2F  A$usb_cdc_acm$1521                 usb_cdc_acm
     0C:   00000F30  A$usb_cdc_acm$1522                 usb_cdc_acm
     0C:   00000F31  A$usb_cdc_acm$1525                 usb_cdc_acm
     0C:   00000F31  C$usb_cdc_acm.c$488$2$2            usb_cdc_acm
     0C:   00000F33  A$usb_cdc_acm$1526                 usb_cdc_acm
     0C:   00000F34  A$usb_cdc_acm$1527                 usb_cdc_acm
     0C:   00000F35  A$usb_cdc_acm$1528                 usb_cdc_acm
     0C:   00000F36  A$usb_cdc_acm$1529                 usb_cdc_acm
     0C:   00000F37  A$usb_cdc_acm$1532                 usb_cdc_acm
     0C:   00000F37  C$usb_cdc_acm.c$489$2$2            usb_cdc_acm
     0C:   00000F38  A$usb_cdc_acm$1533                 usb_cdc_acm
     0C:   00000F3A  A$usb_cdc_acm$1534                 usb_cdc_acm
     0C:   00000F3C  A$usb_cdc_acm$1537                 usb_cdc_acm
     0C:   00000F3C  C$usb_cdc_acm.c$491$2$2            usb_cdc_acm
     0C:   00000F3E  A$usb_cdc_acm$1538                 usb_cdc_acm
     0C:   00000F41  A$usb_cdc_acm$1541                 usb_cdc_acm
     0C:   00000F41  C$usb_cdc_acm.c$493$3$4            usb_cdc_acm
     0C:   00000F43  A$usb_cdc_acm$1542                 usb_cdc_acm
     0C:   00000F45  A$usb_cdc_acm$1543                 usb_cdc_acm
     0C:   00000F48  A$usb_cdc_acm$1544                 usb_cdc_acm
     0C:   00000F4A  A$usb_cdc_acm$1545                 usb_cdc_acm
     0C:   00000F4C  A$usb_cdc_acm$1546                 usb_cdc_acm
     0C:   00000F4E  A$usb_cdc_acm$1550                 usb_cdc_acm
     0C:   00000F4E  C$usb_cdc_acm.c$496$1$1            usb_cdc_acm
     0C:   00000F4E  XG$usbComTxSend$0$0                usb_cdc_acm
     0C:   00000F4F  A$usb_cdc_acm$1561                 usb_cdc_acm
     0C:   00000F4F  C$usb_cdc_acm.c$498$1$1            usb_cdc_acm
     0C:   00000F4F  G$usbComTxSendByte$0$0             usb_cdc_acm
     0C:   00000F4F  _usbComTxSendByte                  usb_cdc_acm
     0C:   00000F51  A$usb_cdc_acm$1562                 usb_cdc_acm
     0C:   00000F54  A$usb_cdc_acm$1563                 usb_cdc_acm
     0C:   00000F55  A$usb_cdc_acm$1566                 usb_cdc_acm
     0C:   00000F55  C$usb_cdc_acm.c$503$1$1            usb_cdc_acm
     0C:   00000F57  A$usb_cdc_acm$1569                 usb_cdc_acm
     0C:   00000F57  C$usb_cdc_acm.c$505$1$1            usb_cdc_acm
ASxxxx Linker V02.00 + NoICE + sdld,  page 134.
Hexadecimal  [32-Bits]

Area                                    Addr        Size        Decimal Bytes (Attributes)
--------------------------------        ----        ----        ------- ----- ------------
CSEG                                00000540    00001C08 =        7176. bytes (REL,CON,CODE)

      Value  Global                              Global Defined In Module
      -----  --------------------------------   ------------------------
     0C:   00000F59  A$usb_cdc_acm$1570                 usb_cdc_acm
     0C:   00000F5C  A$usb_cdc_acm$1573                 usb_cdc_acm
     0C:   00000F5C  C$usb_cdc_acm.c$507$2$2            usb_cdc_acm
     0C:   00000F5F  A$usb_cdc_acm$1577                 usb_cdc_acm
     0C:   00000F5F  C$usb_cdc_acm.c$511$2$1            usb_cdc_acm
     0C:   00000F5F  XG$usbComTxSendByte$0$0            usb_cdc_acm
     0C:   00000F60  A$usb_cdc_acm$1590                 usb_cdc_acm
     0C:   00000F60  C$usb_cdc_acm.c$515$2$1            usb_cdc_acm
     0C:   00000F60  C$usb_cdc_acm.c$517$1$1            usb_cdc_acm
     0C:   00000F60  G$usbComRxControlSignals$0$0       usb_cdc_acm
     0C:   00000F60  _usbComRxControlSignals            usb_cdc_acm
     0C:   00000F62  A$usb_cdc_acm$1591                 usb_cdc_acm
     0C:   00000F63  A$usb_cdc_acm$1592                 usb_cdc_acm
     0C:   00000F65  A$usb_cdc_acm$1595                 usb_cdc_acm
     0C:   00000F65  C$usb_cdc_acm.c$518$1$1            usb_cdc_acm
     0C:   00000F65  XG$usbComRxControlSignals$0$0      usb_cdc_acm
     0C:   00000F66  A$usb_cdc_acm$1606                 usb_cdc_acm
     0C:   00000F66  C$usb_cdc_acm.c$520$1$1            usb_cdc_acm
     0C:   00000F66  G$usbComTxControlSignals$0$0       usb_cdc_acm
     0C:   00000F66  _usbComTxControlSignals            usb_cdc_acm
     0C:   00000F68  A$usb_cdc_acm$1609                 usb_cdc_acm
     0C:   00000F68  C$usb_cdc_acm.c$522$1$1            usb_cdc_acm
     0C:   00000F6A  A$usb_cdc_acm$1610                 usb_cdc_acm
     0C:   00000F6B  A$usb_cdc_acm$1611                 usb_cdc_acm
     0C:   00000F6D  A$usb_cdc_acm$1612                 usb_cdc_acm
     0C:   00000F6E  A$usb_cdc_acm$1613                 usb_cdc_acm
     0C:   00000F70  A$usb_cdc_acm$1614                 usb_cdc_acm
     0C:   00000F71  A$usb_cdc_acm$1617                 usb_cdc_acm
     0C:   00000F71  C$usb_cdc_acm.c$523$1$1            usb_cdc_acm
     0C:   00000F71  XG$usbComTxControlSignals$0$0      usb_cdc_acm
     0C:   00000F72  A$usb_cdc_acm$1628                 usb_cdc_acm
     0C:   00000F72  C$usb_cdc_acm.c$525$1$1            usb_cdc_acm
     0C:   00000F72  G$usbComTxControlSignalEvents$0$   usb_cdc_acm
     0C:   00000F72  _usbComTxControlSignalEvents       usb_cdc_acm
     0C:   00000F74  A$usb_cdc_acm$1631                 usb_cdc_acm
     0C:   00000F74  C$usb_cdc_acm.c$527$1$1            usb_cdc_acm
     0C:   00000F76  A$usb_cdc_acm$1632                 usb_cdc_acm
     0C:   00000F77  A$usb_cdc_acm$1633                 usb_cdc_acm
     0C:   00000F78  A$usb_cdc_acm$1634                 usb_cdc_acm
     0C:   00000F79  A$usb_cdc_acm$1637                 usb_cdc_acm
     0C:   00000F79  C$usb_cdc_acm.c$528$1$1            usb_cdc_acm
     0C:   00000F79  XG$usbComTxControlSignalEvents$0   usb_cdc_acm
     0C:   00000F7A  A$usb$837                          usb
     0C:   00000F7A  C$usb.c$29$0$0                     usb
     0C:   00000F7A  C$usb.c$31$0$0                     usb
     0C:   00000F7A  G$usbInit$0$0                      usb
     0C:   00000F7A  XG$usbInit$0$0                     usb
     0C:   00000F7A  _usbInit                           usb
     0C:   00000F7B  A$usb$848                          usb
     0C:   00000F7B  C$usb.c$34$0$0                     usb
     0C:   00000F7B  G$usbReadFifo$0$0                  usb
ASxxxx Linker V02.00 + NoICE + sdld,  page 135.
Hexadecimal  [32-Bits]

Area                                    Addr        Size        Decimal Bytes (Attributes)
--------------------------------        ----        ----        ------- ----- ------------
CSEG                                00000540    00001C08 =        7176. bytes (REL,CON,CODE)

      Value  Global                              Global Defined In Module
      -----  --------------------------------   ------------------------
     0C:   00000F7B  _usbReadFifo                       usb
     0C:   00000F7D  A$usb$851                          usb
     0C:   00000F7D  C$usb.c$36$1$1                     usb
     0C:   00000F7E  A$usb$852                          usb
     0C:   00000F7F  A$usb$853                          usb
     0C:   00000F81  A$usb$854                          usb
     0C:   00000F82  A$usb$855                          usb
     0C:   00000F83  A$usb$856                          usb
     0C:   00000F84  A$usb$857                          usb
     0C:   00000F86  A$usb$858                          usb
     0C:   00000F87  A$usb$859                          usb
     0C:   00000F88  A$usb$860                          usb
     0C:   00000F8A  A$usb$861                          usb
     0C:   00000F8B  A$usb$862                          usb
     0C:   00000F8C  A$usb$865                          usb
     0C:   00000F8C  C$usb.c$37$1$1                     usb
     0C:   00000F8E  A$usb$866                          usb
     0C:   00000F8F  A$usb$867                          usb
     0C:   00000F90  A$usb$868                          usb
     0C:   00000F92  A$usb$869                          usb
     0C:   00000F93  A$usb$870                          usb
     0C:   00000F94  A$usb$871                          usb
     0C:   00000F95  A$usb$872                          usb
     0C:   00000F96  A$usb$873                          usb
     0C:   00000F97  A$usb$875                          usb
     0C:   00000F98  A$usb$876                          usb
     0C:   00000F9A  A$usb$879                          usb
     0C:   00000F9A  C$usb.c$39$2$2                     usb
     0C:   00000F9B  A$usb$882                          usb
     0C:   00000F9B  C$usb.c$40$2$2                     usb
     0C:   00000F9D  A$usb$883                          usb
     0C:   00000F9F  A$usb$884                          usb
     0C:   00000FA0  A$usb$885                          usb
     0C:   00000FA1  A$usb$886                          usb
     0C:   00000FA3  A$usb$887                          usb
     0C:   00000FA5  A$usb$888                          usb
     0C:   00000FA6  A$usb$889                          usb
     0C:   00000FA7  A$usb$890                          usb
     0C:   00000FA9  A$usb$891                          usb
     0C:   00000FAB  A$usb$892                          usb
     0C:   00000FAD  A$usb$896                          usb
     0C:   00000FAD  C$usb.c$43$1$1                     usb
     0C:   00000FAF  A$usb$899                          usb
     0C:   00000FAF  C$usb.c$44$1$1                     usb
     0C:   00000FAF  XG$usbReadFifo$0$0                 usb
     0C:   00000FB0  A$usb$910                          usb
     0C:   00000FB0  C$usb.c$46$1$1                     usb
     0C:   00000FB0  G$usbWriteFifo$0$0                 usb
     0C:   00000FB0  _usbWriteFifo                      usb
     0C:   00000FB2  A$usb$913                          usb
     0C:   00000FB2  C$usb.c$48$1$1                     usb
ASxxxx Linker V02.00 + NoICE + sdld,  page 136.
Hexadecimal  [32-Bits]

Area                                    Addr        Size        Decimal Bytes (Attributes)
--------------------------------        ----        ----        ------- ----- ------------
CSEG                                00000540    00001C08 =        7176. bytes (REL,CON,CODE)

      Value  Global                              Global Defined In Module
      -----  --------------------------------   ------------------------
     0C:   00000FB3  A$usb$914                          usb
     0C:   00000FB4  A$usb$915                          usb
     0C:   00000FB6  A$usb$916                          usb
     0C:   00000FB7  A$usb$917                          usb
     0C:   00000FB8  A$usb$918                          usb
     0C:   00000FB9  A$usb$919                          usb
     0C:   00000FBB  A$usb$920                          usb
     0C:   00000FBC  A$usb$921                          usb
     0C:   00000FBD  A$usb$922                          usb
     0C:   00000FBF  A$usb$923                          usb
     0C:   00000FC0  A$usb$924                          usb
     0C:   00000FC1  A$usb$927                          usb
     0C:   00000FC1  C$usb.c$49$1$1                     usb
     0C:   00000FC3  A$usb$928                          usb
     0C:   00000FC4  A$usb$929                          usb
     0C:   00000FC5  A$usb$930                          usb
     0C:   00000FC7  A$usb$931                          usb
     0C:   00000FC8  A$usb$932                          usb
     0C:   00000FC9  A$usb$933                          usb
     0C:   00000FCA  A$usb$934                          usb
     0C:   00000FCB  A$usb$935                          usb
     0C:   00000FCC  A$usb$937                          usb
     0C:   00000FCD  A$usb$938                          usb
     0C:   00000FCF  A$usb$941                          usb
     0C:   00000FCF  C$usb.c$51$2$2                     usb
     0C:   00000FD0  A$usb$944                          usb
     0C:   00000FD0  C$usb.c$52$2$2                     usb
     0C:   00000FD2  A$usb$945                          usb
     0C:   00000FD4  A$usb$946                          usb
     0C:   00000FD5  A$usb$947                          usb
     0C:   00000FD6  A$usb$948                          usb
     0C:   00000FD7  A$usb$949                          usb
     0C:   00000FD9  A$usb$950                          usb
     0C:   00000FDB  A$usb$951                          usb
     0C:   00000FDD  A$usb$952                          usb
     0C:   00000FDF  A$usb$953                          usb
     0C:   00000FE0  A$usb$954                          usb
     0C:   00000FE1  A$usb$955                          usb
     0C:   00000FE3  A$usb$959                          usb
     0C:   00000FE3  C$usb.c$57$1$1                     usb
     0C:   00000FE3  XG$usbWriteFifo$0$0                usb
     0C:   00000FE4  A$usb$972                          usb
     0C:   00000FE4  C$usb.c$61$1$1                     usb
     0C:   00000FE4  C$usb.c$63$1$1                     usb
     0C:   00000FE4  Fusb$basicUsbInit$0$0              usb
     0C:   00000FE6  A$usb$975                          usb
     0C:   00000FE6  C$usb.c$66$1$1                     usb
     0C:   00000FE9  A$usb$976                          usb
     0C:   00000FEB  A$usb$977                          usb
     0C:   00000FEC  A$usb$980                          usb
     0C:   00000FEC  C$usb.c$70$1$1                     usb
ASxxxx Linker V02.00 + NoICE + sdld,  page 137.
Hexadecimal  [32-Bits]

Area                                    Addr        Size        Decimal Bytes (Attributes)
--------------------------------        ----        ----        ------- ----- ------------
CSEG                                00000540    00001C08 =        7176. bytes (REL,CON,CODE)

      Value  Global                              Global Defined In Module
      -----  --------------------------------   ------------------------
     0C:   00000FEF  A$usb$981                          usb
     0C:   00000FF1  A$usb$982                          usb
     0C:   00000FF2  A$usb$985                          usb
     0C:   00000FF2  C$usb.c$71$1$1                     usb
     0C:   00000FF2  XFusb$basicUsbInit$0$0             usb
     0C:   00000FF3  A$usb$998                          usb
     0C:   00000FF3  C$usb.c$73$1$1                     usb
     0C:   00000FF3  C$usb.c$79$1$1                     usb
     0C:   00000FF3  G$usbPoll$0$0                      usb
     0C:   00000FF3  _usbPoll                           usb
     0C:   00000FF6  A$usb$999                          usb
     0C:   00000FF8  A$usb$1002                         usb
     0C:   00000FF8  C$usb.c$84$2$2                     usb
     0C:   00000FFA  A$usb$1003                         usb
     0C:   00000FFD  A$usb$1004                         usb
     0C:   00000FFF  A$usb$1007                         usb
     0C:   00000FFF  C$usb.c$86$2$2                     usb
     0C:   00001002  A$usb$1010                         usb
     0C:   00001002  C$usb.c$87$2$2                     usb
     0C:   00001005  A$usb$1011                         usb
     0C:   00001006  A$usb$1012                         usb
     0C:   00001007  A$usb$1015                         usb
     0C:   00001007  C$usb.c$88$2$2                     usb
     0C:   00001009  A$usb$1018                         usb
     0C:   00001009  C$usb.c$89$2$2                     usb
     0C:   0000100C  A$usb$1022                         usb
     0C:   0000100C  C$usb.c$92$1$1                     usb
     0C:   0000100F  A$usb$1023                         usb
     0C:   00001010  A$usb$1024                         usb
     0C:   00001011  A$usb$1025                         usb
     0C:   00001013  A$usb$1028                         usb
     0C:   00001013  C$usb.c$94$2$3                     usb
     0C:   00001016  A$usb$1031                         usb
     0C:   00001016  C$usb.c$95$2$3                     usb
     0C:   00001019  A$usb$1034                         usb
     0C:   00001019  C$usb.c$96$2$3                     usb
     0C:   0000101A  A$usb$1037                         usb
     0C:   0000101A  C$usb.c$97$2$3                     usb
     0C:   0000101B  A$usb$1040                         usb
     0C:   0000101B  C$usb.c$98$2$3                     usb
     0C:   0000101C  A$usb$1043                         usb
     0C:   0000101C  C$usb.c$99$2$3                     usb
     0C:   0000101D  A$usb$1046                         usb
     0C:   0000101D  C$usb.c$100$2$3                    usb
     0C:   00001020  A$usb$1047                         usb
     0C:   00001022  A$usb$1048                         usb
     0C:   00001023  A$usb$1051                         usb
     0C:   00001023  C$usb.c$102$2$3                    usb
     0C:   00001026  A$usb$1055                         usb
     0C:   00001026  C$usb.c$105$1$1                    usb
     0C:   00001029  A$usb$1056                         usb
ASxxxx Linker V02.00 + NoICE + sdld,  page 138.
Hexadecimal  [32-Bits]

Area                                    Addr        Size        Decimal Bytes (Attributes)
--------------------------------        ----        ----        ------- ----- ------------
CSEG                                00000540    00001C08 =        7176. bytes (REL,CON,CODE)

      Value  Global                              Global Defined In Module
      -----  --------------------------------   ------------------------
     0C:   0000102A  A$usb$1057                         usb
     0C:   0000102B  A$usb$1060                         usb
     0C:   0000102B  C$usb.c$106$1$1                    usb
     0C:   0000102E  A$usb$1061                         usb
     0C:   0000102F  A$usb$1062                         usb
     0C:   00001030  A$usb$1065                         usb
     0C:   00001030  C$usb.c$108$1$1                    usb
     0C:   00001031  A$usb$1066                         usb
     0C:   00001034  A$usb$1069                         usb
     0C:   00001034  C$usb.c$113$2$4                    usb
     0C:   00001036  A$usb$1073                         usb
     0C:   00001036  C$usb.c$116$1$1                    usb
     0C:   00001037  A$usb$1074                         usb
     0C:   0000103A  A$usb$1077                         usb
     0C:   0000103A  C$usb.c$119$2$5                    usb
     0C:   0000103D  A$usb$1078                         usb
     0C:   0000103F  A$usb$1079                         usb
     0C:   00001040  A$usb$1082                         usb
     0C:   00001040  C$usb.c$120$2$5                    usb
     0C:   00001043  A$usb$1083                         usb
     0C:   00001044  A$usb$1084                         usb
     0C:   00001045  A$usb$1087                         usb
     0C:   00001045  C$usb.c$122$2$5                    usb
     0C:   00001047  A$usb$1088                         usb
     0C:   00001049  A$usb$1089                         usb
     0C:   0000104C  A$usb$1090                         usb
     0C:   0000104E  A$usb$1091                         usb
     0C:   00001050  A$usb$1095                         usb
     0C:   00001050  C$usb.c$125$1$1                    usb
     0C:   00001051  A$usb$1096                         usb
     0C:   00001054  A$usb$1099                         usb
     0C:   00001054  C$usb.c$127$2$6                    usb
     0C:   00001056  A$usb$1103                         usb
     0C:   00001056  C$usb.c$130$1$1                    usb
     0C:   00001057  A$usb$1104                         usb
     0C:   0000105A  A$usb$1105                         usb
     0C:   0000105D  A$usb$1109                         usb
     0C:   0000105D  C$usb.c$134$2$7                    usb
     0C:   00001060  A$usb$1110                         usb
     0C:   00001061  A$usb$1111                         usb
     0C:   00001062  A$usb$1114                         usb
     0C:   00001062  C$usb.c$135$2$7                    usb
     0C:   00001065  A$usb$1115                         usb
     0C:   00001066  A$usb$1116                         usb
     0C:   00001067  A$usb$1119                         usb
     0C:   00001067  C$usb.c$137$2$7                    usb
     0C:   00001069  A$usb$1122                         usb
     0C:   00001069  C$usb.c$139$2$7                    usb
     0C:   0000106A  A$usb$1123                         usb
     0C:   0000106D  A$usb$1126                         usb
     0C:   0000106D  C$usb.c$142$3$8                    usb
ASxxxx Linker V02.00 + NoICE + sdld,  page 139.
Hexadecimal  [32-Bits]

Area                                    Addr        Size        Decimal Bytes (Attributes)
--------------------------------        ----        ----        ------- ----- ------------
CSEG                                00000540    00001C08 =        7176. bytes (REL,CON,CODE)

      Value  Global                              Global Defined In Module
      -----  --------------------------------   ------------------------
     0C:   00001070  A$usb$1127                         usb
     0C:   00001072  A$usb$1128                         usb
     0C:   00001073  A$usb$1131                         usb
     0C:   00001073  C$usb.c$143$3$8                    usb
     0C:   00001076  A$usb$1132                         usb
     0C:   00001077  A$usb$1133                         usb
     0C:   00001078  A$usb$1137                         usb
     0C:   00001078  C$usb.c$146$2$7                    usb
     0C:   00001079  A$usb$1138                         usb
     0C:   0000107C  A$usb$1141                         usb
     0C:   0000107C  C$usb.c$149$3$9                    usb
     0C:   0000107F  A$usb$1144                         usb
     0C:   0000107F  C$usb.c$150$3$9                    usb
     0C:   00001080  A$usb$1145                         usb
     0C:   00001081  A$usb$1146                         usb
     0C:   00001084  A$usb$1147                         usb
     0C:   00001085  A$usb$1151                         usb
     0C:   00001085  C$usb.c$153$2$7                    usb
     0C:   00001086  A$usb$1152                         usb
     0C:   00001089  A$usb$1153                         usb
     0C:   0000108C  A$usb$1157                         usb
     0C:   0000108C  C$usb.c$158$3$10                   usb
     0C:   0000108F  A$usb$1158                         usb
     0C:   00001090  A$usb$1159                         usb
     0C:   00001091  A$usb$1160                         usb
     0C:   00001094  A$usb$1161                         usb
     0C:   00001096  A$usb$1163                         usb
     0C:   00001099  A$usb$1167                         usb
     0C:   00001099  C$usb.c$161$4$10                   usb
     0C:   0000109C  A$usb$1168                         usb
     0C:   0000109D  A$usb$1169                         usb
     0C:   0000109E  A$usb$1172                         usb
     0C:   0000109E  C$usb.c$162$4$11                   usb
     0C:   000010A1  A$usb$1173                         usb
     0C:   000010A2  A$usb$1174                         usb
     0C:   000010A3  A$usb$1175                         usb
     0C:   000010A4  A$usb$1176                         usb
     0C:   000010A5  A$usb$1177                         usb
     0C:   000010A6  A$usb$1178                         usb
     0C:   000010A8  A$usb$1179                         usb
     0C:   000010AA  A$usb$1180                         usb
     0C:   000010AB  A$usb$1181                         usb
     0C:   000010AC  A$usb$1182                         usb
     0C:   000010AD  A$usb$1183                         usb
     0C:   000010AE  A$usb$1184                         usb
     0C:   000010AF  A$usb$1185                         usb
     0C:   000010B1  A$usb$1188                         usb
     0C:   000010B1  C$usb.c$164$5$12                   usb
     0C:   000010B3  A$usb$1192                         usb
     0C:   000010B3  C$usb.c$166$4$11                   usb
     0C:   000010B5  A$usb$1193                         usb
ASxxxx Linker V02.00 + NoICE + sdld,  page 140.
Hexadecimal  [32-Bits]

Area                                    Addr        Size        Decimal Bytes (Attributes)
--------------------------------        ----        ----        ------- ----- ------------
CSEG                                00000540    00001C08 =        7176. bytes (REL,CON,CODE)

      Value  Global                              Global Defined In Module
      -----  --------------------------------   ------------------------
     0C:   000010B6  A$usb$1194                         usb
     0C:   000010B7  A$usb$1195                         usb
     0C:   000010B9  A$usb$1196                         usb
     0C:   000010BB  A$usb$1197                         usb
     0C:   000010BC  A$usb$1198                         usb
     0C:   000010BD  A$usb$1199                         usb
     0C:   000010BE  A$usb$1200                         usb
     0C:   000010BF  A$usb$1201                         usb
     0C:   000010C0  A$usb$1202                         usb
     0C:   000010C1  A$usb$1203                         usb
     0C:   000010C4  A$usb$1204                         usb
     0C:   000010C6  A$usb$1205                         usb
     0C:   000010C8  A$usb$1206                         usb
     0C:   000010CB  A$usb$1207                         usb
     0C:   000010CD  A$usb$1208                         usb
     0C:   000010CF  A$usb$1211                         usb
     0C:   000010CF  C$usb.c$167$4$11                   usb
     0C:   000010D1  A$usb$1212                         usb
     0C:   000010D2  A$usb$1213                         usb
     0C:   000010D3  A$usb$1214                         usb
     0C:   000010D4  A$usb$1215                         usb
     0C:   000010D5  A$usb$1216                         usb
     0C:   000010D6  A$usb$1217                         usb
     0C:   000010D8  A$usb$1218                         usb
     0C:   000010D9  A$usb$1221                         usb
     0C:   000010D9  C$usb.c$168$4$11                   usb
     0C:   000010DC  A$usb$1222                         usb
     0C:   000010DD  A$usb$1223                         usb
     0C:   000010DE  A$usb$1224                         usb
     0C:   000010DF  A$usb$1225                         usb
     0C:   000010E0  A$usb$1226                         usb
     0C:   000010E1  A$usb$1227                         usb
     0C:   000010E3  A$usb$1228                         usb
     0C:   000010E6  A$usb$1229                         usb
     0C:   000010E7  A$usb$1230                         usb
     0C:   000010E8  A$usb$1231                         usb
     0C:   000010E9  A$usb$1232                         usb
     0C:   000010EA  A$usb$1233                         usb
     0C:   000010EB  A$usb$1234                         usb
     0C:   000010EC  A$usb$1235                         usb
     0C:   000010ED  A$usb$1236                         usb
     0C:   000010EE  A$usb$1239                         usb
     0C:   000010EE  C$usb.c$170$4$11                   usb
     0C:   000010F1  A$usb$1240                         usb
     0C:   000010F2  A$usb$1241                         usb
     0C:   000010F3  A$usb$1242                         usb
     0C:   000010F4  A$usb$1243                         usb
     0C:   000010F5  A$usb$1244                         usb
     0C:   000010F6  A$usb$1245                         usb
     0C:   000010F7  A$usb$1246                         usb
     0C:   000010F9  A$usb$1249                         usb
ASxxxx Linker V02.00 + NoICE + sdld,  page 141.
Hexadecimal  [32-Bits]

Area                                    Addr        Size        Decimal Bytes (Attributes)
--------------------------------        ----        ----        ------- ----- ------------
CSEG                                00000540    00001C08 =        7176. bytes (REL,CON,CODE)

      Value  Global                              Global Defined In Module
      -----  --------------------------------   ------------------------
     0C:   000010F9  C$usb.c$173$5$13                   usb
     0C:   000010FC  A$usb$1250                         usb
     0C:   000010FE  A$usb$1251                         usb
     0C:   000010FF  A$usb$1252                         usb
     0C:   00001102  A$usb$1256                         usb
     0C:   00001102  C$usb.c$179$5$14                   usb
     0C:   00001105  A$usb$1257                         usb
     0C:   00001106  A$usb$1258                         usb
     0C:   00001108  A$usb$1259                         usb
     0C:   0000110A  A$usb$1262                         usb
     0C:   0000110A  C$usb.c$181$6$15                   usb
     0C:   0000110C  A$usb$1263                         usb
     0C:   0000110F  A$usb$1264                         usb
     0C:   00001111  A$usb$1268                         usb
     0C:   00001111  C$usb.c$184$5$14                   usb
     0C:   00001114  A$usb$1269                         usb
     0C:   00001115  A$usb$1270                         usb
     0C:   00001116  A$usb$1273                         usb
     0C:   00001116  C$usb.c$186$5$14                   usb
     0C:   00001119  A$usb$1274                         usb
     0C:   0000111A  A$usb$1275                         usb
     0C:   0000111B  A$usb$1276                         usb
     0C:   0000111D  A$usb$1279                         usb
     0C:   0000111D  C$usb.c$189$6$16                   usb
     0C:   00001120  A$usb$1280                         usb
     0C:   00001122  A$usb$1281                         usb
     0C:   00001123  A$usb$1282                         usb
     0C:   00001126  A$usb$1286                         usb
     0C:   00001126  C$usb.c$194$6$17                   usb
     0C:   00001129  A$usb$1287                         usb
     0C:   0000112B  A$usb$1288                         usb
     0C:   0000112C  A$usb$1291                         usb
     0C:   0000112C  C$usb.c$195$6$17                   usb
     0C:   0000112F  A$usb$1292                         usb
     0C:   00001130  A$usb$1293                         usb
     0C:   00001131  A$usb$1294                         usb
     0C:   00001134  A$usb$1298                         usb
     0C:   00001134  C$usb.c$199$3$10                   usb
     0C:   00001137  A$usb$1299                         usb
     0C:   00001138  A$usb$1300                         usb
     0C:   00001139  A$usb$1301                         usb
     0C:   0000113C  A$usb$1304                         usb
     0C:   0000113C  C$usb.c$204$4$18                   usb
     0C:   0000113E  A$usb$1305                         usb
     0C:   00001140  A$usb$1306                         usb
     0C:   00001141  A$usb$1307                         usb
     0C:   00001142  A$usb$1308                         usb
     0C:   00001144  A$usb$1309                         usb
     0C:   00001145  A$usb$1310                         usb
     0C:   00001147  A$usb$1311                         usb
     0C:   00001149  A$usb$1312                         usb
ASxxxx Linker V02.00 + NoICE + sdld,  page 142.
Hexadecimal  [32-Bits]

Area                                    Addr        Size        Decimal Bytes (Attributes)
--------------------------------        ----        ----        ------- ----- ------------
CSEG                                00000540    00001C08 =        7176. bytes (REL,CON,CODE)

      Value  Global                              Global Defined In Module
      -----  --------------------------------   ------------------------
     0C:   0000114A  A$usb$1313                         usb
     0C:   0000114D  A$usb$1314                         usb
     0C:   0000114F  A$usb$1315                         usb
     0C:   00001152  A$usb$1316                         usb
     0C:   00001154  A$usb$1319                         usb
     0C:   00001154  C$usb.c$207$4$18                   usb
     0C:   00001157  A$usb$1320                         usb
     0C:   00001158  A$usb$1321                         usb
     0C:   00001159  A$usb$1324                         usb
     0C:   00001159  C$usb.c$209$4$18                   usb
     0C:   0000115C  A$usb$1325                         usb
     0C:   0000115D  A$usb$1326                         usb
     0C:   0000115F  A$usb$1327                         usb
     0C:   00001161  A$usb$1330                         usb
     0C:   00001161  C$usb.c$214$5$19                   usb
     0C:   00001163  A$usb$1331                         usb
     0C:   00001166  A$usb$1332                         usb
     0C:   00001168  A$usb$1333                         usb
     0C:   0000116A  A$usb$1337                         usb
     0C:   0000116A  C$usb.c$221$5$20                   usb
     0C:   0000116C  A$usb$1338                         usb
     0C:   0000116F  A$usb$1339                         usb
     0C:   00001171  A$usb$1343                         usb
     0C:   00001171  C$usb.c$224$4$18                   usb
     0C:   00001174  A$usb$1344                         usb
     0C:   00001175  A$usb$1345                         usb
     0C:   00001176  A$usb$1348                         usb
     0C:   00001176  C$usb.c$227$4$18                   usb
     0C:   00001179  A$usb$1349                         usb
     0C:   0000117A  A$usb$1350                         usb
     0C:   0000117B  A$usb$1351                         usb
     0C:   0000117D  A$usb$1354                         usb
     0C:   0000117D  C$usb.c$230$5$21                   usb
     0C:   00001180  A$usb$1355                         usb
     0C:   00001182  A$usb$1356                         usb
     0C:   00001183  A$usb$1357                         usb
     0C:   00001185  A$usb$1361                         usb
     0C:   00001185  C$usb.c$232$4$18                   usb
     0C:   00001188  A$usb$1364                         usb
     0C:   00001188  C$usb.c$234$5$22                   usb
     0C:   0000118B  A$usb$1365                         usb
     0C:   0000118C  A$usb$1366                         usb
     0C:   0000118D  A$usb$1367                         usb
     0C:   0000118E  A$usb$1368                         usb
     0C:   0000118F  A$usb$1369                         usb
     0C:   00001190  A$usb$1370                         usb
     0C:   00001191  A$usb$1371                         usb
     0C:   00001193  A$usb$1374                         usb
     0C:   00001193  C$usb.c$237$6$23                   usb
     0C:   00001196  A$usb$1375                         usb
     0C:   00001198  A$usb$1376                         usb
ASxxxx Linker V02.00 + NoICE + sdld,  page 143.
Hexadecimal  [32-Bits]

Area                                    Addr        Size        Decimal Bytes (Attributes)
--------------------------------        ----        ----        ------- ----- ------------
CSEG                                00000540    00001C08 =        7176. bytes (REL,CON,CODE)

      Value  Global                              Global Defined In Module
      -----  --------------------------------   ------------------------
     0C:   00001199  A$usb$1377                         usb
     0C:   0000119B  A$usb$1381                         usb
     0C:   0000119B  C$usb.c$242$6$24                   usb
     0C:   0000119E  A$usb$1382                         usb
     0C:   000011A0  A$usb$1383                         usb
     0C:   000011A1  A$usb$1386                         usb
     0C:   000011A1  C$usb.c$243$6$24                   usb
     0C:   000011A4  A$usb$1387                         usb
     0C:   000011A5  A$usb$1388                         usb
     0C:   000011A6  A$usb$1389                         usb
     0C:   000011A8  A$usb$1393                         usb
     0C:   000011A8  C$usb.c$252$4$25                   usb
     0C:   000011AB  A$usb$1394                         usb
     0C:   000011AD  A$usb$1395                         usb
     0C:   000011AE  A$usb$1399                         usb
     0C:   000011AE  C$usb.c$256$2$7                    usb
     0C:   000011AF  A$usb$1400                         usb
     0C:   000011B2  A$usb$1401                         usb
     0C:   000011B5  A$usb$1402                         usb
     0C:   000011B6  A$usb$1403                         usb
     0C:   000011B7  A$usb$1404                         usb
     0C:   000011BA  A$usb$1407                         usb
     0C:   000011BA  C$usb.c$261$3$26                   usb
     0C:   000011BD  A$usb$1408                         usb
     0C:   000011BE  A$usb$1409                         usb
     0C:   000011BF  A$usb$1410                         usb
     0C:   000011C0  A$usb$1411                         usb
     0C:   000011C1  A$usb$1412                         usb
     0C:   000011C2  A$usb$1413                         usb
     0C:   000011C3  A$usb$1414                         usb
     0C:   000011C4  A$usb$1415                         usb
     0C:   000011C6  A$usb$1416                         usb
     0C:   000011C7  A$usb$1417                         usb
     0C:   000011C9  A$usb$1418                         usb
     0C:   000011CB  A$usb$1421                         usb
     0C:   000011CB  C$usb.c$264$4$27                   usb
     0C:   000011CD  A$usb$1426                         usb
     0C:   000011CD  C$usb.c$265$4$27                   usb
     0C:   000011CD  C$usb.c$266$4$27                   usb
     0C:   000011D0  A$usb$1427                         usb
     0C:   000011D1  A$usb$1428                         usb
     0C:   000011D2  A$usb$1429                         usb
     0C:   000011D4  A$usb$1433                         usb
     0C:   000011D4  C$usb.c$271$4$28                   usb
     0C:   000011D6  A$usb$1436                         usb
     0C:   000011D6  C$usb.c$272$4$28                   usb
     0C:   000011D8  A$usb$1440                         usb
     0C:   000011D8  C$usb.c$276$3$26                   usb
     0C:   000011DA  A$usb$1441                         usb
     0C:   000011DB  A$usb$1442                         usb
     0C:   000011DC  A$usb$1443                         usb
ASxxxx Linker V02.00 + NoICE + sdld,  page 144.
Hexadecimal  [32-Bits]

Area                                    Addr        Size        Decimal Bytes (Attributes)
--------------------------------        ----        ----        ------- ----- ------------
CSEG                                00000540    00001C08 =        7176. bytes (REL,CON,CODE)

      Value  Global                              Global Defined In Module
      -----  --------------------------------   ------------------------
     0C:   000011DE  A$usb$1444                         usb
     0C:   000011E0  A$usb$1445                         usb
     0C:   000011E1  A$usb$1446                         usb
     0C:   000011E2  A$usb$1447                         usb
     0C:   000011E3  A$usb$1448                         usb
     0C:   000011E4  A$usb$1449                         usb
     0C:   000011E5  A$usb$1450                         usb
     0C:   000011E6  A$usb$1451                         usb
     0C:   000011E9  A$usb$1452                         usb
     0C:   000011EB  A$usb$1453                         usb
     0C:   000011ED  A$usb$1454                         usb
     0C:   000011F0  A$usb$1455                         usb
     0C:   000011F2  A$usb$1456                         usb
     0C:   000011F4  A$usb$1459                         usb
     0C:   000011F4  C$usb.c$277$3$26                   usb
     0C:   000011F7  A$usb$1460                         usb
     0C:   000011F8  A$usb$1461                         usb
     0C:   000011F9  A$usb$1464                         usb
     0C:   000011F9  C$usb.c$280$3$26                   usb
     0C:   000011FB  A$usb$1465                         usb
     0C:   000011FC  A$usb$1466                         usb
     0C:   000011FD  A$usb$1467                         usb
     0C:   000011FE  A$usb$1468                         usb
     0C:   000011FF  A$usb$1469                         usb
     0C:   00001200  A$usb$1470                         usb
     0C:   00001202  A$usb$1471                         usb
     0C:   00001203  A$usb$1474                         usb
     0C:   00001203  C$usb.c$281$3$26                   usb
     0C:   00001206  A$usb$1475                         usb
     0C:   00001207  A$usb$1476                         usb
     0C:   00001208  A$usb$1477                         usb
     0C:   00001209  A$usb$1478                         usb
     0C:   0000120A  A$usb$1479                         usb
     0C:   0000120B  A$usb$1480                         usb
     0C:   0000120D  A$usb$1481                         usb
     0C:   00001210  A$usb$1482                         usb
     0C:   00001211  A$usb$1483                         usb
     0C:   00001212  A$usb$1484                         usb
     0C:   00001213  A$usb$1485                         usb
     0C:   00001214  A$usb$1486                         usb
     0C:   00001215  A$usb$1487                         usb
     0C:   00001216  A$usb$1488                         usb
     0C:   00001217  A$usb$1489                         usb
     0C:   00001218  A$usb$1493                         usb
     0C:   00001218  C$usb.c$284$1$1                    usb
     0C:   00001218  XG$usbPoll$0$0                     usb
     0C:   00001219  A$usb$1508                         usb
     0C:   00001219  C$usb.c$291$1$1                    usb
     0C:   00001219  C$usb.c$295$1$1                    usb
     0C:   00001219  Fusb$usbStandardDeviceRequestHan   usb
     0C:   00001219  _usbStandardDeviceRequestHandler   usb
ASxxxx Linker V02.00 + NoICE + sdld,  page 145.
Hexadecimal  [32-Bits]

Area                                    Addr        Size        Decimal Bytes (Attributes)
--------------------------------        ----        ----        ------- ----- ------------
CSEG                                00000540    00001C08 =        7176. bytes (REL,CON,CODE)

      Value  Global                              Global Defined In Module
      -----  --------------------------------   ------------------------
     0C:   0000121C  A$usb$1511                         usb
     0C:   0000121C  C$usb.c$296$1$1                    usb
     0C:   0000121D  A$usb$1512                         usb
     0C:   0000121E  A$usb$1513                         usb
     0C:   00001221  A$usb$1514                         usb
     0C:   00001222  A$usb$1517                         usb
     0C:   00001222  C$usb.c$309$1$1                    usb
     0C:   00001225  A$usb$1518                         usb
     0C:   00001226  A$usb$1519                         usb
     0C:   00001227  A$usb$1520                         usb
     0C:   00001229  A$usb$1521                         usb
     0C:   0000122B  A$usb$1522                         usb
     0C:   0000122E  A$usb$1524                         usb
     0C:   0000122F  A$usb$1525                         usb
     0C:   00001230  A$usb$1526                         usb
     0C:   00001231  A$usb$1527                         usb
     0C:   00001234  A$usb$1528                         usb
     0C:   00001235  A$usb$1530                         usb
     0C:   00001238  A$usb$1531                         usb
     0C:   0000123B  A$usb$1532                         usb
     0C:   0000123E  A$usb$1533                         usb
     0C:   00001241  A$usb$1534                         usb
     0C:   00001244  A$usb$1535                         usb
     0C:   00001247  A$usb$1536                         usb
     0C:   0000124A  A$usb$1537                         usb
     0C:   0000124D  A$usb$1538                         usb
     0C:   00001250  A$usb$1539                         usb
     0C:   00001253  A$usb$1540                         usb
     0C:   00001256  A$usb$1541                         usb
     0C:   00001259  A$usb$1542                         usb
     0C:   0000125C  A$usb$1548                         usb
     0C:   0000125C  C$usb.c$311$2$2                    usb
     0C:   0000125C  C$usb.c$313$3$3                    usb
     0C:   0000125F  A$usb$1549                         usb
     0C:   00001260  A$usb$1550                         usb
     0C:   00001261  A$usb$1551                         usb
     0C:   00001262  A$usb$1552                         usb
     0C:   00001263  A$usb$1553                         usb
     0C:   00001264  A$usb$1554                         usb
     0C:   00001265  A$usb$1555                         usb
     0C:   00001267  A$usb$1556                         usb
     0C:   0000126A  A$usb$1557                         usb
     0C:   0000126D  A$usb$1558                         usb
     0C:   0000126F  A$usb$1560                         usb
     0C:   00001272  A$usb$1561                         usb
     0C:   00001275  A$usb$1562                         usb
     0C:   00001277  A$usb$1564                         usb
     0C:   0000127A  A$usb$1565                         usb
     0C:   0000127D  A$usb$1566                         usb
     0C:   0000127F  A$usb$1568                         usb
     0C:   00001282  A$usb$1574                         usb
ASxxxx Linker V02.00 + NoICE + sdld,  page 146.
Hexadecimal  [32-Bits]

Area                                    Addr        Size        Decimal Bytes (Attributes)
--------------------------------        ----        ----        ------- ----- ------------
CSEG                                00000540    00001C08 =        7176. bytes (REL,CON,CODE)

      Value  Global                              Global Defined In Module
      -----  --------------------------------   ------------------------
     0C:   00001282  C$usb.c$315$4$4                    usb
     0C:   00001282  C$usb.c$317$5$5                    usb
     0C:   00001284  A$usb$1575                         usb
     0C:   00001286  A$usb$1576                         usb
     0C:   00001287  A$usb$1577                         usb
     0C:   00001288  A$usb$1578                         usb
     0C:   0000128A  A$usb$1579                         usb
     0C:   0000128B  A$usb$1582                         usb
     0C:   0000128B  C$usb.c$318$5$5                    usb
     0C:   0000128E  A$usb$1583                         usb
     0C:   00001290  A$usb$1584                         usb
     0C:   00001291  A$usb$1585                         usb
     0C:   00001292  A$usb$1586                         usb
     0C:   00001293  A$usb$1587                         usb
     0C:   00001294  A$usb$1590                         usb
     0C:   00001294  C$usb.c$319$5$5                    usb
     0C:   00001297  A$usb$1596                         usb
     0C:   00001297  C$usb.c$321$4$4                    usb
     0C:   00001297  C$usb.c$323$5$6                    usb
     0C:   00001298  A$usb$1597                         usb
     0C:   0000129A  A$usb$1600                         usb
     0C:   0000129A  C$usb.c$326$6$7                    usb
     0C:   0000129D  A$usb$1604                         usb
     0C:   0000129D  C$usb.c$331$5$6                    usb
     0C:   0000129F  A$usb$1605                         usb
     0C:   000012A1  A$usb$1606                         usb
     0C:   000012A2  A$usb$1607                         usb
     0C:   000012A3  A$usb$1608                         usb
     0C:   000012A5  A$usb$1609                         usb
     0C:   000012A6  A$usb$1612                         usb
     0C:   000012A6  C$usb.c$332$5$6                    usb
     0C:   000012A9  A$usb$1613                         usb
     0C:   000012AA  A$usb$1614                         usb
     0C:   000012AB  A$usb$1615                         usb
     0C:   000012AC  A$usb$1616                         usb
     0C:   000012AD  A$usb$1617                         usb
     0C:   000012AE  A$usb$1618                         usb
     0C:   000012AF  A$usb$1619                         usb
     0C:   000012B0  A$usb$1620                         usb
     0C:   000012B3  A$usb$1621                         usb
     0C:   000012B4  A$usb$1622                         usb
     0C:   000012B5  A$usb$1623                         usb
     0C:   000012B6  A$usb$1624                         usb
     0C:   000012B7  A$usb$1625                         usb
     0C:   000012B8  A$usb$1630                         usb
     0C:   000012B8  C$usb.c$333$5$6                    usb
     0C:   000012B8  C$usb.c$335$4$4                    usb
     0C:   000012BA  A$usb$1634                         usb
     0C:   000012BA  C$usb.c$337$5$8                    usb
     0C:   000012BC  A$usb$1635                         usb
     0C:   000012BE  A$usb$1636                         usb
ASxxxx Linker V02.00 + NoICE + sdld,  page 147.
Hexadecimal  [32-Bits]

Area                                    Addr        Size        Decimal Bytes (Attributes)
--------------------------------        ----        ----        ------- ----- ------------
CSEG                                00000540    00001C08 =        7176. bytes (REL,CON,CODE)

      Value  Global                              Global Defined In Module
      -----  --------------------------------   ------------------------
     0C:   000012C1  A$usb$1637                         usb
     0C:   000012C2  A$usb$1638                         usb
     0C:   000012C3  A$usb$1639                         usb
     0C:   000012C4  A$usb$1640                         usb
     0C:   000012C6  A$usb$1641                         usb
     0C:   000012C7  A$usb$1642                         usb
     0C:   000012C8  A$usb$1643                         usb
     0C:   000012C9  A$usb$1644                         usb
     0C:   000012CA  A$usb$1645                         usb
     0C:   000012CB  A$usb$1646                         usb
     0C:   000012CD  A$usb$1649                         usb
     0C:   000012CD  C$usb.c$340$6$9                    usb
     0C:   000012D0  A$usb$1653                         usb
     0C:   000012D0  C$usb.c$343$5$8                    usb
     0C:   000012D1  A$usb$1654                         usb
     0C:   000012D2  A$usb$1655                         usb
     0C:   000012D4  A$usb$1656                         usb
     0C:   000012D5  A$usb$1657                         usb
     0C:   000012D6  A$usb$1658                         usb
     0C:   000012D7  A$usb$1659                         usb
     0C:   000012D8  A$usb$1660                         usb
     0C:   000012DA  A$usb$1661                         usb
     0C:   000012DC  A$usb$1662                         usb
     0C:   000012DD  A$usb$1663                         usb
     0C:   000012DF  A$usb$1664                         usb
     0C:   000012E1  A$usb$1665                         usb
     0C:   000012E2  A$usb$1666                         usb
     0C:   000012E3  A$usb$1667                         usb
     0C:   000012E4  A$usb$1668                         usb
     0C:   000012E5  A$usb$1669                         usb
     0C:   000012E6  A$usb$1670                         usb
     0C:   000012E7  A$usb$1671                         usb
     0C:   000012E8  A$usb$1672                         usb
     0C:   000012EA  A$usb$1673                         usb
     0C:   000012EB  A$usb$1674                         usb
     0C:   000012EC  A$usb$1675                         usb
     0C:   000012ED  A$usb$1676                         usb
     0C:   000012EE  A$usb$1677                         usb
     0C:   000012EF  A$usb$1680                         usb
     0C:   000012EF  C$usb.c$344$5$8                    usb
     0C:   000012F1  A$usb$1681                         usb
     0C:   000012F3  A$usb$1682                         usb
     0C:   000012F4  A$usb$1683                         usb
     0C:   000012F5  A$usb$1684                         usb
     0C:   000012F8  A$usb$1685                         usb
     0C:   000012F9  A$usb$1686                         usb
     0C:   000012FA  A$usb$1687                         usb
     0C:   000012FB  A$usb$1688                         usb
     0C:   000012FC  A$usb$1693                         usb
     0C:   000012FC  C$usb.c$345$5$8                    usb
     0C:   000012FC  C$usb.c$347$4$4                    usb
ASxxxx Linker V02.00 + NoICE + sdld,  page 148.
Hexadecimal  [32-Bits]

Area                                    Addr        Size        Decimal Bytes (Attributes)
--------------------------------        ----        ----        ------- ----- ------------
CSEG                                00000540    00001C08 =        7176. bytes (REL,CON,CODE)

      Value  Global                              Global Defined In Module
      -----  --------------------------------   ------------------------
     0C:   000012FE  A$usb$1697                         usb
     0C:   000012FE  C$usb.c$350$5$10                   usb
     0C:   00001301  A$usb$1700                         usb
     0C:   00001301  C$usb.c$352$5$10                   usb
     0C:   00001304  A$usb$1701                         usb
     0C:   00001305  A$usb$1702                         usb
     0C:   00001306  A$usb$1703                         usb
     0C:   00001308  A$usb$1706                         usb
     0C:   00001308  C$usb.c$355$6$11                   usb
     0C:   0000130B  A$usb$1712                         usb
     0C:   0000130B  C$usb.c$359$3$3                    usb
     0C:   0000130B  C$usb.c$364$3$3                    usb
     0C:   0000130E  A$usb$1713                         usb
     0C:   0000130F  A$usb$1714                         usb
     0C:   00001310  A$usb$1715                         usb
     0C:   00001311  A$usb$1716                         usb
     0C:   00001312  A$usb$1717                         usb
     0C:   00001313  A$usb$1718                         usb
     0C:   00001316  A$usb$1719                         usb
     0C:   00001317  A$usb$1720                         usb
     0C:   00001318  A$usb$1721                         usb
     0C:   00001319  A$usb$1722                         usb
     0C:   0000131A  A$usb$1723                         usb
     0C:   0000131B  A$usb$1724                         usb
     0C:   0000131C  A$usb$1725                         usb
     0C:   0000131D  A$usb$1726                         usb
     0C:   0000131E  A$usb$1727                         usb
     0C:   0000131F  A$usb$1728                         usb
     0C:   00001320  A$usb$1729                         usb
     0C:   00001322  A$usb$1732                         usb
     0C:   00001322  C$usb.c$366$4$12                   usb
     0C:   00001325  A$usb$1733                         usb
     0C:   00001326  A$usb$1734                         usb
     0C:   00001327  A$usb$1735                         usb
     0C:   00001328  A$usb$1736                         usb
     0C:   00001329  A$usb$1737                         usb
     0C:   0000132A  A$usb$1741                         usb
     0C:   0000132A  C$usb.c$369$3$3                    usb
     0C:   0000132D  A$usb$1742                         usb
     0C:   0000132F  A$usb$1743                         usb
     0C:   00001330  A$usb$1746                         usb
     0C:   00001330  C$usb.c$370$3$3                    usb
     0C:   00001333  A$usb$1752                         usb
     0C:   00001333  C$usb.c$372$2$2                    usb
     0C:   00001333  C$usb.c$379$3$13                   usb
     0C:   00001336  A$usb$1753                         usb
     0C:   00001337  A$usb$1754                         usb
     0C:   00001338  A$usb$1755                         usb
     0C:   00001339  A$usb$1756                         usb
     0C:   0000133A  A$usb$1757                         usb
     0C:   0000133B  A$usb$1758                         usb
ASxxxx Linker V02.00 + NoICE + sdld,  page 149.
Hexadecimal  [32-Bits]

Area                                    Addr        Size        Decimal Bytes (Attributes)
--------------------------------        ----        ----        ------- ----- ------------
CSEG                                00000540    00001C08 =        7176. bytes (REL,CON,CODE)

      Value  Global                              Global Defined In Module
      -----  --------------------------------   ------------------------
     0C:   0000133E  A$usb$1759                         usb
     0C:   0000133F  A$usb$1760                         usb
     0C:   00001340  A$usb$1763                         usb
     0C:   00001340  C$usb.c$380$3$13                   usb
     0C:   00001341  A$usb$1764                         usb
     0C:   00001343  A$usb$1765                         usb
     0C:   00001345  A$usb$1766                         usb
     0C:   00001347  A$usb$1768                         usb
     0C:   00001349  A$usb$1770                         usb
     0C:   0000134C  A$usb$1771                         usb
     0C:   0000134D  A$usb$1772                         usb
     0C:   0000134E  A$usb$1775                         usb
     0C:   0000134E  C$usb.c$383$3$13                   usb
     0C:   00001351  A$usb$1778                         usb
     0C:   00001351  C$usb.c$384$3$13                   usb
     0C:   00001354  A$usb$1784                         usb
     0C:   00001354  C$usb.c$386$2$2                    usb
     0C:   00001354  C$usb.c$389$3$14                   usb
     0C:   00001357  A$usb$1785                         usb
     0C:   00001358  A$usb$1786                         usb
     0C:   00001359  A$usb$1787                         usb
     0C:   0000135A  A$usb$1788                         usb
     0C:   0000135B  A$usb$1789                         usb
     0C:   0000135C  A$usb$1790                         usb
     0C:   0000135F  A$usb$1791                         usb
     0C:   00001362  A$usb$1792                         usb
     0C:   00001364  A$usb$1796                         usb
     0C:   00001364  C$usb.c$391$4$15                   usb
     0C:   00001367  A$usb$1797                         usb
     0C:   0000136A  A$usb$1798                         usb
     0C:   0000136C  A$usb$1802                         usb
     0C:   0000136C  C$usb.c$397$5$16                   usb
     0C:   0000136F  A$usb$1803                         usb
     0C:   00001370  A$usb$1804                         usb
     0C:   00001371  A$usb$1805                         usb
     0C:   00001373  A$usb$1806                         usb
     0C:   00001375  A$usb$1809                         usb
     0C:   00001375  C$usb.c$399$6$17                   usb
     0C:   00001378  A$usb$1810                         usb
     0C:   0000137A  A$usb$1811                         usb
     0C:   0000137B  A$usb$1816                         usb
     0C:   0000137B  C$usb.c$401$5$16                   usb
     0C:   0000137B  C$usb.c$403$4$15                   usb
     0C:   0000137D  A$usb$1820                         usb
     0C:   0000137D  C$usb.c$408$5$18                   usb
     0C:   00001380  A$usb$1821                         usb
     0C:   00001382  A$usb$1822                         usb
     0C:   00001383  A$usb$1825                         usb
     0C:   00001383  C$usb.c$409$5$18                   usb
     0C:   00001386  A$usb$1830                         usb
     0C:   00001386  C$usb.c$410$5$18                   usb
ASxxxx Linker V02.00 + NoICE + sdld,  page 150.
Hexadecimal  [32-Bits]

Area                                    Addr        Size        Decimal Bytes (Attributes)
--------------------------------        ----        ----        ------- ----- ------------
CSEG                                00000540    00001C08 =        7176. bytes (REL,CON,CODE)

      Value  Global                              Global Defined In Module
      -----  --------------------------------   ------------------------
     0C:   00001386  C$usb.c$412$4$15                   usb
     0C:   00001388  A$usb$1834                         usb
     0C:   00001388  C$usb.c$415$5$19                   usb
     0C:   0000138B  A$usb$1840                         usb
     0C:   0000138B  C$usb.c$417$3$14                   usb
     0C:   0000138B  C$usb.c$420$3$14                   usb
     0C:   0000138E  A$usb$1843                         usb
     0C:   0000138E  C$usb.c$421$3$14                   usb
     0C:   00001391  A$usb$1849                         usb
     0C:   00001391  C$usb.c$423$2$2                    usb
     0C:   00001391  C$usb.c$426$3$20                   usb
     0C:   00001394  A$usb$1850                         usb
     0C:   00001395  A$usb$1851                         usb
     0C:   00001396  A$usb$1852                         usb
     0C:   00001399  A$usb$1853                         usb
     0C:   0000139B  A$usb$1854                         usb
     0C:   0000139D  A$usb$1856                         usb
     0C:   0000139F  A$usb$1858                         usb
     0C:   000013A2  A$usb$1859                         usb
     0C:   000013A3  A$usb$1860                         usb
     0C:   000013A4  A$usb$1863                         usb
     0C:   000013A4  C$usb.c$427$3$20                   usb
     0C:   000013A6  A$usb$1864                         usb
     0C:   000013A8  A$usb$1865                         usb
     0C:   000013A9  A$usb$1866                         usb
     0C:   000013AA  A$usb$1867                         usb
     0C:   000013AC  A$usb$1868                         usb
     0C:   000013AD  A$usb$1869                         usb
     0C:   000013B0  A$usb$1870                         usb
     0C:   000013B3  A$usb$1873                         usb
     0C:   000013B3  C$usb.c$428$3$20                   usb
     0C:   000013B6  A$usb$1879                         usb
     0C:   000013B6  C$usb.c$430$2$2                    usb
     0C:   000013B6  C$usb.c$437$3$21                   usb
     0C:   000013B9  A$usb$1880                         usb
     0C:   000013BA  A$usb$1881                         usb
     0C:   000013BB  A$usb$1882                         usb
     0C:   000013BE  A$usb$1884                         usb
     0C:   000013C0  A$usb$1887                         usb
     0C:   000013C0  C$usb.c$440$4$22                   usb
     0C:   000013C3  A$usb$1891                         usb
     0C:   000013C3  C$usb.c$443$3$21                   usb
     0C:   000013C6  A$usb$1892                         usb
     0C:   000013C7  A$usb$1893                         usb
     0C:   000013C8  A$usb$1894                         usb
     0C:   000013C9  A$usb$1895                         usb
     0C:   000013CA  A$usb$1896                         usb
     0C:   000013CB  A$usb$1897                         usb
     0C:   000013CD  A$usb$1898                         usb
     0C:   000013CF  A$usb$1899                         usb
     0C:   000013D1  A$usb$1900                         usb
ASxxxx Linker V02.00 + NoICE + sdld,  page 151.
Hexadecimal  [32-Bits]

Area                                    Addr        Size        Decimal Bytes (Attributes)
--------------------------------        ----        ----        ------- ----- ------------
CSEG                                00000540    00001C08 =        7176. bytes (REL,CON,CODE)

      Value  Global                              Global Defined In Module
      -----  --------------------------------   ------------------------
     0C:   000013D3  A$usb$1901                         usb
     0C:   000013D4  A$usb$1902                         usb
     0C:   000013D5  A$usb$1903                         usb
     0C:   000013D6  A$usb$1904                         usb
     0C:   000013D7  A$usb$1905                         usb
     0C:   000013D8  A$usb$1906                         usb
     0C:   000013D9  A$usb$1907                         usb
     0C:   000013DA  A$usb$1908                         usb
     0C:   000013DC  A$usb$1909                         usb
     0C:   000013DD  A$usb$1910                         usb
     0C:   000013DE  A$usb$1911                         usb
     0C:   000013DF  A$usb$1912                         usb
     0C:   000013E0  A$usb$1913                         usb
     0C:   000013E1  A$usb$1914                         usb
     0C:   000013E3  A$usb$1917                         usb
     0C:   000013E3  C$usb.c$446$4$23                   usb
     0C:   000013E6  A$usb$1921                         usb
     0C:   000013E6  C$usb.c$451$3$21                   usb
     0C:   000013E8  A$usb$1922                         usb
     0C:   000013EA  A$usb$1923                         usb
     0C:   000013EB  A$usb$1924                         usb
     0C:   000013EC  A$usb$1925                         usb
     0C:   000013EE  A$usb$1926                         usb
     0C:   000013EF  A$usb$1927                         usb
     0C:   000013F2  A$usb$1928                         usb
     0C:   000013F5  A$usb$1931                         usb
     0C:   000013F5  C$usb.c$452$3$21                   usb
     0C:   000013F8  A$usb$1937                         usb
     0C:   000013F8  C$usb.c$454$2$2                    usb
     0C:   000013F8  C$usb.c$456$3$24                   usb
     0C:   000013FB  A$usb$1938                         usb
     0C:   000013FC  A$usb$1939                         usb
     0C:   000013FE  A$usb$1940                         usb
     0C:   000013FF  A$usb$1941                         usb
     0C:   00001401  A$usb$1942                         usb
     0C:   00001404  A$usb$1943                         usb
     0C:   00001407  A$usb$1944                         usb
     0C:   00001409  A$usb$1946                         usb
     0C:   0000140C  A$usb$1947                         usb
     0C:   0000140F  A$usb$1948                         usb
     0C:   00001411  A$usb$1950                         usb
     0C:   00001414  A$usb$1951                         usb
     0C:   00001417  A$usb$1952                         usb
     0C:   0000141A  A$usb$1954                         usb
     0C:   0000141D  A$usb$1960                         usb
     0C:   0000141D  C$usb.c$458$4$25                   usb
     0C:   0000141D  C$usb.c$461$5$26                   usb
     0C:   00001420  A$usb$1961                         usb
     0C:   00001422  A$usb$1962                         usb
     0C:   00001424  A$usb$1963                         usb
     0C:   00001426  A$usb$1965                         usb
ASxxxx Linker V02.00 + NoICE + sdld,  page 152.
Hexadecimal  [32-Bits]

Area                                    Addr        Size        Decimal Bytes (Attributes)
--------------------------------        ----        ----        ------- ----- ------------
CSEG                                00000540    00001C08 =        7176. bytes (REL,CON,CODE)

      Value  Global                              Global Defined In Module
      -----  --------------------------------   ------------------------
     0C:   00001428  A$usb$1967                         usb
     0C:   0000142B  A$usb$1968                         usb
     0C:   0000142C  A$usb$1969                         usb
     0C:   0000142D  A$usb$1972                         usb
     0C:   0000142D  C$usb.c$463$5$26                   usb
     0C:   0000142F  A$usb$1973                         usb
     0C:   00001431  A$usb$1974                         usb
     0C:   00001432  A$usb$1975                         usb
     0C:   00001433  A$usb$1976                         usb
     0C:   00001435  A$usb$1977                         usb
     0C:   00001436  A$usb$1978                         usb
     0C:   00001439  A$usb$1979                         usb
     0C:   0000143C  A$usb$1982                         usb
     0C:   0000143C  C$usb.c$464$5$26                   usb
     0C:   0000143F  A$usb$1988                         usb
     0C:   0000143F  C$usb.c$466$4$25                   usb
     0C:   0000143F  C$usb.c$468$5$27                   usb
     0C:   00001442  A$usb$1989                         usb
     0C:   00001443  A$usb$1990                         usb
     0C:   00001444  A$usb$1991                         usb
     0C:   00001447  A$usb$1993                         usb
     0C:   00001449  A$usb$1994                         usb
     0C:   0000144C  A$usb$1995                         usb
     0C:   0000144D  A$usb$1996                         usb
     0C:   0000144E  A$usb$1997                         usb
     0C:   0000144F  A$usb$1998                         usb
     0C:   00001450  A$usb$1999                         usb
     0C:   00001451  A$usb$2000                         usb
     0C:   00001452  A$usb$2001                         usb
     0C:   00001454  A$usb$2004                         usb
     0C:   00001454  C$usb.c$472$6$28                   usb
     0C:   00001457  A$usb$2008                         usb
     0C:   00001457  C$usb.c$475$5$27                   usb
     0C:   0000145A  A$usb$2009                         usb
     0C:   0000145B  A$usb$2010                         usb
     0C:   0000145C  A$usb$2011                         usb
     0C:   0000145D  A$usb$2012                         usb
     0C:   0000145E  A$usb$2013                         usb
     0C:   0000145F  A$usb$2014                         usb
     0C:   00001461  A$usb$2015                         usb
     0C:   00001463  A$usb$2016                         usb
     0C:   00001465  A$usb$2017                         usb
     0C:   00001467  A$usb$2018                         usb
     0C:   00001468  A$usb$2019                         usb
     0C:   00001469  A$usb$2020                         usb
     0C:   0000146A  A$usb$2021                         usb
     0C:   0000146B  A$usb$2022                         usb
     0C:   0000146C  A$usb$2023                         usb
     0C:   0000146D  A$usb$2024                         usb
     0C:   0000146E  A$usb$2025                         usb
     0C:   00001470  A$usb$2026                         usb
ASxxxx Linker V02.00 + NoICE + sdld,  page 153.
Hexadecimal  [32-Bits]

Area                                    Addr        Size        Decimal Bytes (Attributes)
--------------------------------        ----        ----        ------- ----- ------------
CSEG                                00000540    00001C08 =        7176. bytes (REL,CON,CODE)

      Value  Global                              Global Defined In Module
      -----  --------------------------------   ------------------------
     0C:   00001471  A$usb$2027                         usb
     0C:   00001472  A$usb$2028                         usb
     0C:   00001473  A$usb$2029                         usb
     0C:   00001474  A$usb$2030                         usb
     0C:   00001475  A$usb$2031                         usb
     0C:   00001477  A$usb$2034                         usb
     0C:   00001477  C$usb.c$478$6$29                   usb
     0C:   00001479  A$usb$2038                         usb
     0C:   00001479  C$usb.c$483$5$27                   usb
     0C:   0000147B  A$usb$2039                         usb
     0C:   0000147D  A$usb$2040                         usb
     0C:   0000147E  A$usb$2041                         usb
     0C:   0000147F  A$usb$2042                         usb
     0C:   00001481  A$usb$2043                         usb
     0C:   00001482  A$usb$2044                         usb
     0C:   00001485  A$usb$2045                         usb
     0C:   00001488  A$usb$2050                         usb
     0C:   00001488  C$usb.c$484$5$27                   usb
     0C:   00001488  C$usb.c$486$4$25                   usb
     0C:   0000148A  A$usb$2054                         usb
     0C:   0000148A  C$usb.c$488$5$30                   usb
     0C:   0000148D  A$usb$2055                         usb
     0C:   0000148E  A$usb$2056                         usb
     0C:   0000148F  A$usb$2057                         usb
     0C:   00001490  A$usb$2058                         usb
     0C:   00001491  A$usb$2059                         usb
     0C:   00001492  A$usb$2060                         usb
     0C:   00001493  A$usb$2061                         usb
     0C:   00001495  A$usb$2062                         usb
     0C:   00001497  A$usb$2063                         usb
     0C:   00001499  A$usb$2067                         usb
     0C:   00001499  C$usb.c$492$6$31                   usb
     0C:   0000149B  A$usb$2071                         usb
     0C:   0000149B  C$usb.c$495$5$30                   usb
     0C:   0000149E  A$usb$2072                         usb
     0C:   0000149F  A$usb$2073                         usb
     0C:   000014A0  A$usb$2074                         usb
     0C:   000014A3  A$usb$2076                         usb
     0C:   000014A5  A$usb$2079                         usb
     0C:   000014A5  C$usb.c$499$6$32                   usb
     0C:   000014A7  A$usb$2083                         usb
     0C:   000014A7  C$usb.c$507$5$30                   usb
     0C:   000014A9  A$usb$2084                         usb
     0C:   000014AB  A$usb$2085                         usb
     0C:   000014AC  A$usb$2086                         usb
     0C:   000014AD  A$usb$2087                         usb
     0C:   000014AF  A$usb$2088                         usb
     0C:   000014B0  A$usb$2089                         usb
     0C:   000014B3  A$usb$2090                         usb
     0C:   000014B6  A$usb$2095                         usb
     0C:   000014B6  C$usb.c$508$5$30                   usb
ASxxxx Linker V02.00 + NoICE + sdld,  page 154.
Hexadecimal  [32-Bits]

Area                                    Addr        Size        Decimal Bytes (Attributes)
--------------------------------        ----        ----        ------- ----- ------------
CSEG                                00000540    00001C08 =        7176. bytes (REL,CON,CODE)

      Value  Global                              Global Defined In Module
      -----  --------------------------------   ------------------------
     0C:   000014B6  C$usb.c$510$3$24                   usb
     0C:   000014B8  A$usb$2101                         usb
     0C:   000014B8  C$usb.c$511$3$24                   usb
     0C:   000014B8  C$usb.c$519$2$2                    usb
     0C:   000014BA  A$usb$2108                         usb
     0C:   000014BA  C$usb.c$520$2$2                    usb
     0C:   000014BA  C$usb.c$523$3$33                   usb
     0C:   000014BD  A$usb$2113                         usb
     0C:   000014BD  C$usb.c$524$3$33                   usb
     0C:   000014BD  C$usb.c$526$2$2                    usb
     0C:   000014BF  A$usb$2117                         usb
     0C:   000014BF  C$usb.c$529$3$34                   usb
     0C:   000014C1  A$usb$2118                         usb
     0C:   000014C3  A$usb$2119                         usb
     0C:   000014C4  A$usb$2120                         usb
     0C:   000014C5  A$usb$2121                         usb
     0C:   000014C7  A$usb$2122                         usb
     0C:   000014C8  A$usb$2123                         usb
     0C:   000014CB  A$usb$2124                         usb
     0C:   000014CE  A$usb$2133                         usb
     0C:   000014CE  C$usb.c$530$3$34                   usb
     0C:   000014CE  C$usb.c$532$1$1                    usb
     0C:   000014CE  C$usb.c$533$1$1                    usb
     0C:   000014CE  XFusb$usbStandardDeviceRequestHa   usb
     0C:   000014CF  A$usb$2146                         usb
     0C:   000014CF  C$usb.c$535$1$1                    usb
     0C:   000014CF  C$usb.c$537$1$1                    usb
     0C:   000014CF  G$usbSuspended$0$0                 usb
     0C:   000014CF  _usbSuspended                      usb
     0C:   000014D1  A$usb$2149                         usb
     0C:   000014D1  C$usb.c$538$1$1                    usb
     0C:   000014D1  XG$usbSuspended$0$0                usb
     0C:   000014D2  A$usb$2162                         usb
     0C:   000014D2  C$usb.c$554$1$1                    usb
     0C:   000014D2  C$usb.c$556$1$1                    usb
     0C:   000014D2  G$usbSleep$0$0                     usb
     0C:   000014D2  _usbSleep                          usb
     0C:   000014D4  A$usb$2165                         usb
     0C:   000014D4  C$usb.c$557$1$1                    usb
     0C:   000014D6  A$usb$2166                         usb
     0C:   000014D8  A$usb$2169                         usb
     0C:   000014D8  C$usb.c$561$1$1                    usb
     0C:   000014DA  A$usb$2172                         usb
     0C:   000014DA  C$usb.c$562$1$1                    usb
     0C:   000014DD  A$usb$2175                         usb
     0C:   000014DD  C$usb.c$563$1$1                    usb
     0C:   000014DF  A$usb$2176                         usb
     0C:   000014E2  A$usb$2177                         usb
     0C:   000014E4  A$usb$2183                         usb
     0C:   000014E4  C$usb.c$565$1$1                    usb
     0C:   000014E4  C$usb.c$568$2$2                    usb
ASxxxx Linker V02.00 + NoICE + sdld,  page 155.
Hexadecimal  [32-Bits]

Area                                    Addr        Size        Decimal Bytes (Attributes)
--------------------------------        ----        ----        ------- ----- ------------
CSEG                                00000540    00001C08 =        7176. bytes (REL,CON,CODE)

      Value  Global                              Global Defined In Module
      -----  --------------------------------   ------------------------
     0C:   000014E7  A$usb$2186                         usb
     0C:   000014E7  C$usb.c$569$2$2                    usb
     0C:   000014E9  A$usb$2189                         usb
     0C:   000014E9  C$usb.c$571$2$2                    usb
     0C:   000014EB  A$usb$2192                         usb
     0C:   000014EB  C$usb.c$574$2$2                    usb
     0C:   000014ED  A$usb$2193                         usb
     0C:   000014EF  A$usb$2194                         usb
     0C:   000014F0  A$usb$2195                         usb
     0C:   000014F2  A$usb$2196                         usb
     0C:   000014F3  A$usb$2197                         usb
     0C:   000014F5  A$usb$2200                         usb
     0C:   000014F5  C$usb.c$575$2$2                    usb
     0C:   000014F6  A$usb$2201                         usb
     0C:   000014F7  A$usb$2202                         usb
     0C:   000014F8  A$usb$2205                         usb
     0C:   000014F8  C$usb.c$576$2$2                    usb
     0C:   000014FA  A$usb$2206                         usb
     0C:   000014FC  A$usb$2207                         usb
     0C:   000014FE  A$usb$2210                         usb
     0C:   000014FE  C$usb.c$578$3$3                    usb
     0C:   00001500  A$usb$2213                         usb
     0C:   00001500  C$usb.c$579$3$3                    usb
     0C:   00001503  A$usb$2216                         usb
     0C:   00001503  C$usb.c$580$3$3                    usb
     0C:   00001505  A$usb$2220                         usb
     0C:   00001505  C$usb.c$586$2$2                    usb
     0C:   00001507  A$usb$2223                         usb
     0C:   00001507  C$usb.c$592$2$2                    usb
     0C:   00001509  A$usb$2224                         usb
     0C:   0000150C  A$usb$2227                         usb
     0C:   0000150C  C$usb.c$594$3$4                    usb
     0C:   0000150E  A$usb$2231                         usb
     0C:   0000150E  C$usb.c$597$1$1                    usb
     0C:   00001511  A$usb$2232                         usb
     0C:   00001513  A$usb$2233                         usb
     0C:   00001516  A$usb$2234                         usb
     0C:   00001518  A$usb$2235                         usb
     0C:   0000151A  A$usb$2239                         usb
     0C:   0000151A  C$usb.c$601$1$1                    usb
     0C:   0000151C  A$usb$2240                         usb
     0C:   0000151F  A$usb$2243                         usb
     0C:   0000151F  C$usb.c$604$1$1                    usb
     0C:   00001521  A$usb$2246                         usb
     0C:   00001521  C$usb.c$605$1$1                    usb
     0C:   00001523  A$usb$2247                         usb
     0C:   00001525  A$usb$2250                         usb
     0C:   00001525  C$usb.c$606$1$1                    usb
     0C:   00001525  XG$usbSleep$0$0                    usb
     0C:   00001526  A$usb$2261                         usb
     0C:   00001526  C$usb.c$608$1$1                    usb
ASxxxx Linker V02.00 + NoICE + sdld,  page 156.
Hexadecimal  [32-Bits]

Area                                    Addr        Size        Decimal Bytes (Attributes)
--------------------------------        ----        ----        ------- ----- ------------
CSEG                                00000540    00001C08 =        7176. bytes (REL,CON,CODE)

      Value  Global                              Global Defined In Module
      -----  --------------------------------   ------------------------
     0C:   00001526  G$usbControlRead$0$0               usb
     0C:   00001526  _usbControlRead                    usb
     0C:   00001528  A$usb$2262                         usb
     0C:   0000152A  A$usb$2265                         usb
     0C:   0000152A  C$usb.c$610$1$1                    usb
     0C:   0000152D  A$usb$2266                         usb
     0C:   0000152F  A$usb$2267                         usb
     0C:   00001530  A$usb$2270                         usb
     0C:   00001530  C$usb.c$611$1$1                    usb
     0C:   00001533  A$usb$2271                         usb
     0C:   00001534  A$usb$2272                         usb
     0C:   00001535  A$usb$2273                         usb
     0C:   00001536  A$usb$2274                         usb
     0C:   00001537  A$usb$2275                         usb
     0C:   00001538  A$usb$2278                         usb
     0C:   00001538  C$usb.c$612$1$1                    usb
     0C:   0000153A  A$usb$2279                         usb
     0C:   0000153B  A$usb$2280                         usb
     0C:   0000153C  A$usb$2281                         usb
     0C:   0000153D  A$usb$2282                         usb
     0C:   0000153E  A$usb$2283                         usb
     0C:   0000153F  A$usb$2284                         usb
     0C:   00001541  A$usb$2285                         usb
     0C:   00001542  A$usb$2286                         usb
     0C:   00001543  A$usb$2287                         usb
     0C:   00001544  A$usb$2288                         usb
     0C:   00001545  A$usb$2289                         usb
     0C:   00001546  A$usb$2292                         usb
     0C:   00001546  C$usb.c$613$1$1                    usb
     0C:   00001546  XG$usbControlRead$0$0              usb
     0C:   00001547  A$usb$2303                         usb
     0C:   00001547  C$usb.c$615$1$1                    usb
     0C:   00001547  G$usbControlWrite$0$0              usb
     0C:   00001547  _usbControlWrite                   usb
     0C:   00001549  A$usb$2304                         usb
     0C:   0000154B  A$usb$2307                         usb
     0C:   0000154B  C$usb.c$617$1$1                    usb
     0C:   0000154E  A$usb$2308                         usb
     0C:   00001550  A$usb$2309                         usb
     0C:   00001551  A$usb$2312                         usb
     0C:   00001551  C$usb.c$618$1$1                    usb
     0C:   00001554  A$usb$2313                         usb
     0C:   00001555  A$usb$2314                         usb
     0C:   00001556  A$usb$2315                         usb
     0C:   00001557  A$usb$2316                         usb
     0C:   00001558  A$usb$2317                         usb
     0C:   00001559  A$usb$2320                         usb
     0C:   00001559  C$usb.c$619$1$1                    usb
     0C:   0000155B  A$usb$2321                         usb
     0C:   0000155C  A$usb$2322                         usb
     0C:   0000155D  A$usb$2323                         usb
ASxxxx Linker V02.00 + NoICE + sdld,  page 157.
Hexadecimal  [32-Bits]

Area                                    Addr        Size        Decimal Bytes (Attributes)
--------------------------------        ----        ----        ------- ----- ------------
CSEG                                00000540    00001C08 =        7176. bytes (REL,CON,CODE)

      Value  Global                              Global Defined In Module
      -----  --------------------------------   ------------------------
     0C:   0000155E  A$usb$2324                         usb
     0C:   0000155F  A$usb$2325                         usb
     0C:   00001560  A$usb$2326                         usb
     0C:   00001562  A$usb$2327                         usb
     0C:   00001563  A$usb$2328                         usb
     0C:   00001564  A$usb$2329                         usb
     0C:   00001565  A$usb$2330                         usb
     0C:   00001566  A$usb$2331                         usb
     0C:   00001567  A$usb$2334                         usb
     0C:   00001567  C$usb.c$620$1$1                    usb
     0C:   00001567  XG$usbControlWrite$0$0             usb
     0C:   00001568  A$usb$2347                         usb
     0C:   00001568  C$usb.c$622$1$1                    usb
     0C:   00001568  C$usb.c$624$1$1                    usb
     0C:   00001568  G$usbControlAcknowledge$0$0        usb
     0C:   00001568  _usbControlAcknowledge             usb
     0C:   0000156B  A$usb$2348                         usb
     0C:   0000156D  A$usb$2349                         usb
     0C:   0000156E  A$usb$2352                         usb
     0C:   0000156E  C$usb.c$625$1$1                    usb
     0C:   00001571  A$usb$2353                         usb
     0C:   00001572  A$usb$2354                         usb
     0C:   00001573  A$usb$2355                         usb
     0C:   00001574  A$usb$2356                         usb
     0C:   00001575  A$usb$2359                         usb
     0C:   00001575  C$usb.c$626$1$1                    usb
     0C:   00001575  XG$usbControlAcknowledge$0$0       usb
     0C:   00001576  A$usb$2372                         usb
     0C:   00001576  C$usb.c$628$1$1                    usb
     0C:   00001576  C$usb.c$630$1$1                    usb
     0C:   00001576  G$usbControlStall$0$0              usb
     0C:   00001576  _usbControlStall                   usb
     0C:   00001579  A$usb$2373                         usb
     0C:   0000157A  A$usb$2374                         usb
     0C:   0000157B  A$usb$2377                         usb
     0C:   0000157B  C$usb.c$631$1$1                    usb
     0C:   0000157B  XG$usbControlStall$0$0             usb
     0C:   0000157C  A$usb$2388                         usb
     0C:   0000157C  C$usb.c$633$1$1                    usb
     0C:   0000157C  G$usbInitEndpointIn$0$0            usb
     0C:   0000157C  _usbInitEndpointIn                 usb
     0C:   0000157E  A$usb$2389                         usb
     0C:   00001581  A$usb$2390                         usb
     0C:   00001582  A$usb$2393                         usb
     0C:   00001582  C$usb.c$636$1$1                    usb
     0C:   00001584  A$usb$2394                         usb
     0C:   00001585  A$usb$2395                         usb
     0C:   00001586  A$usb$2396                         usb
     0C:   00001588  A$usb$2397                         usb
     0C:   0000158A  A$usb$2398                         usb
     0C:   0000158B  A$usb$2399                         usb
ASxxxx Linker V02.00 + NoICE + sdld,  page 158.
Hexadecimal  [32-Bits]

Area                                    Addr        Size        Decimal Bytes (Attributes)
--------------------------------        ----        ----        ------- ----- ------------
CSEG                                00000540    00001C08 =        7176. bytes (REL,CON,CODE)

      Value  Global                              Global Defined In Module
      -----  --------------------------------   ------------------------
     0C:   0000158C  A$usb$2400                         usb
     0C:   0000158D  A$usb$2401                         usb
     0C:   0000158E  A$usb$2402                         usb
     0C:   0000158F  A$usb$2403                         usb
     0C:   00001590  A$usb$2404                         usb
     0C:   00001591  A$usb$2405                         usb
     0C:   00001592  A$usb$2406                         usb
     0C:   00001593  A$usb$2407                         usb
     0C:   00001594  A$usb$2408                         usb
     0C:   00001596  A$usb$2409                         usb
     0C:   00001597  A$usb$2410                         usb
     0C:   00001598  A$usb$2411                         usb
     0C:   0000159A  A$usb$2412                         usb
     0C:   0000159B  A$usb$2413                         usb
     0C:   0000159C  A$usb$2414                         usb
     0C:   0000159D  A$usb$2415                         usb
     0C:   000015A0  A$usb$2416                         usb
     0C:   000015A2  A$usb$2418                         usb
     0C:   000015A5  A$usb$2419                         usb
     0C:   000015A6  A$usb$2420                         usb
     0C:   000015A7  A$usb$2423                         usb
     0C:   000015A7  C$usb.c$637$1$1                    usb
     0C:   000015AA  A$usb$2424                         usb
     0C:   000015AC  A$usb$2425                         usb
     0C:   000015AD  A$usb$2428                         usb
     0C:   000015AD  C$usb.c$638$1$1                    usb
     0C:   000015AD  XG$usbInitEndpointIn$0$0           usb
     0C:   000015AE  A$usb$2439                         usb
     0C:   000015AE  C$usb.c$640$1$1                    usb
     0C:   000015AE  G$usbInitEndpointOut$0$0           usb
     0C:   000015AE  _usbInitEndpointOut                usb
     0C:   000015B0  A$usb$2440                         usb
     0C:   000015B3  A$usb$2441                         usb
     0C:   000015B4  A$usb$2444                         usb
     0C:   000015B4  C$usb.c$643$1$1                    usb
     0C:   000015B6  A$usb$2445                         usb
     0C:   000015B7  A$usb$2446                         usb
     0C:   000015B8  A$usb$2447                         usb
     0C:   000015BA  A$usb$2448                         usb
     0C:   000015BC  A$usb$2449                         usb
     0C:   000015BD  A$usb$2450                         usb
     0C:   000015BE  A$usb$2451                         usb
     0C:   000015BF  A$usb$2452                         usb
     0C:   000015C0  A$usb$2453                         usb
     0C:   000015C1  A$usb$2454                         usb
     0C:   000015C2  A$usb$2455                         usb
     0C:   000015C3  A$usb$2456                         usb
     0C:   000015C4  A$usb$2457                         usb
     0C:   000015C5  A$usb$2458                         usb
     0C:   000015C6  A$usb$2459                         usb
     0C:   000015C8  A$usb$2460                         usb
ASxxxx Linker V02.00 + NoICE + sdld,  page 159.
Hexadecimal  [32-Bits]

Area                                    Addr        Size        Decimal Bytes (Attributes)
--------------------------------        ----        ----        ------- ----- ------------
CSEG                                00000540    00001C08 =        7176. bytes (REL,CON,CODE)

      Value  Global                              Global Defined In Module
      -----  --------------------------------   ------------------------
     0C:   000015C9  A$usb$2461                         usb
     0C:   000015CA  A$usb$2462                         usb
     0C:   000015CC  A$usb$2463                         usb
     0C:   000015CD  A$usb$2464                         usb
     0C:   000015CE  A$usb$2465                         usb
     0C:   000015CF  A$usb$2466                         usb
     0C:   000015D2  A$usb$2467                         usb
     0C:   000015D4  A$usb$2469                         usb
     0C:   000015D7  A$usb$2470                         usb
     0C:   000015D8  A$usb$2471                         usb
     0C:   000015D9  A$usb$2474                         usb
     0C:   000015D9  C$usb.c$644$1$1                    usb
     0C:   000015DC  A$usb$2475                         usb
     0C:   000015DE  A$usb$2476                         usb
     0C:   000015DF  A$usb$2479                         usb
     0C:   000015DF  C$usb.c$645$1$1                    usb
     0C:   000015DF  XG$usbInitEndpointOut$0$0          usb
     0C:   000015E0  A$board$773                        board
     0C:   000015E0  C$board.c$29$0$0                   board
     0C:   000015E0  C$board.c$31$1$1                   board
     0C:   000015E0  G$systemInit$0$0                   board
     0C:   000015E0  _systemInit                        board
     0C:   000015E3  A$board$776                        board
     0C:   000015E3  C$board.c$32$1$1                   board
     0C:   000015E6  A$board$779                        board
     0C:   000015E6  C$board.c$33$1$1                   board
     0C:   000015E9  A$board$782                        board
     0C:   000015E9  C$board.c$34$1$1                   board
     0C:   000015EC  A$board$785                        board
     0C:   000015EC  C$board.c$35$1$1                   board
     0C:   000015EC  XG$systemInit$0$0                  board
     0C:   000015ED  A$board$798                        board
     0C:   000015ED  C$board.c$37$1$1                   board
     0C:   000015ED  C$board.c$39$1$1                   board
     0C:   000015ED  G$boardService$0$0                 board
     0C:   000015ED  _boardService                      board
     0C:   000015F0  A$board$801                        board
     0C:   000015F0  C$board.c$40$1$1                   board
     0C:   000015F0  XG$boardService$0$0                board
     0C:   000015F1  A$board$814                        board
     0C:   000015F1  C$board.c$45$1$1                   board
     0C:   000015F1  C$board.c$48$1$1                   board
     0C:   000015F1  G$boardClockInit$0$0               board
     0C:   000015F1  _boardClockInit                    board
     0C:   000015F3  A$board$815                        board
     0C:   000015F6  A$board$816                        board
     0C:   000015F8  A$board$820                        board
     0C:   000015F8  C$board.c$53$1$1                   board
     0C:   000015FA  A$board$821                        board
     0C:   000015FD  A$board$824                        board
     0C:   000015FD  C$board.c$60$1$1                   board
ASxxxx Linker V02.00 + NoICE + sdld,  page 160.
Hexadecimal  [32-Bits]

Area                                    Addr        Size        Decimal Bytes (Attributes)
--------------------------------        ----        ----        ------- ----- ------------
CSEG                                00000540    00001C08 =        7176. bytes (REL,CON,CODE)

      Value  Global                              Global Defined In Module
      -----  --------------------------------   ------------------------
     0C:   00001600  A$board$827                        board
     0C:   00001600  C$board.c$64$1$1                   board
     0C:   00001603  A$board$830                        board
     0C:   00001603  C$board.c$68$1$1                   board
     0C:   00001606  A$board$833                        board
     0C:   00001606  C$board.c$69$1$1                   board
     0C:   00001606  XG$boardClockInit$0$0              board
     0C:   00001607  A$board$846                        board
     0C:   00001607  C$board.c$71$1$1                   board
     0C:   00001607  C$board.c$73$1$1                   board
     0C:   00001607  G$boardIoInit$0$0                  board
     0C:   00001607  _boardIoInit                       board
     0C:   0000160A  A$board$849                        board
     0C:   0000160A  C$board.c$74$1$1                   board
     0C:   0000160D  A$board$852                        board
     0C:   0000160D  C$board.c$77$1$1                   board
     0C:   00001610  A$board$855                        board
     0C:   00001610  C$board.c$78$1$1                   board
     0C:   00001610  XG$boardIoInit$0$0                 board
     0C:   00001611  A$board$868                        board
     0C:   00001611  C$board.c$84$1$1                   board
     0C:   00001611  C$board.c$87$1$1                   board
     0C:   00001611  Fboard$boardDetectVbus$0$0         board
     0C:   00001614  A$board$869                        board
     0C:   00001616  A$board$870                        board
     0C:   00001618  A$board$871                        board
     0C:   0000161A  A$board$872                        board
     0C:   0000161B  A$board$873                        board
     0C:   0000161D  A$board$874                        board
     0C:   0000161E  A$board$875                        board
     0C:   0000161F  A$board$876                        board
     0C:   00001620  A$board$877                        board
     0C:   00001621  A$board$878                        board
     0C:   00001622  A$board$879                        board
     0C:   00001624  A$board$880                        board
     0C:   00001626  A$board$883                        board
     0C:   00001626  C$board.c$89$2$1                   board
     0C:   00001628  A$board$884                        board
     0C:   00001629  A$board$885                        board
     0C:   0000162B  A$board$886                        board
     0C:   0000162C  A$board$887                        board
     0C:   0000162E  A$board$890                        board
     0C:   0000162E  C$board.c$90$2$2                   board
     0C:   00001630  A$board$891                        board
     0C:   00001632  A$board$894                        board
     0C:   00001632  C$board.c$92$3$3                   board
     0C:   00001635  A$board$897                        board
     0C:   00001635  C$board.c$93$3$3                   board
     0C:   00001638  A$board$898                        board
     0C:   0000163B  A$board$902                        board
     0C:   0000163B  C$board.c$95$2$2                   board
ASxxxx Linker V02.00 + NoICE + sdld,  page 161.
Hexadecimal  [32-Bits]

Area                                    Addr        Size        Decimal Bytes (Attributes)
--------------------------------        ----        ----        ------- ----- ------------
CSEG                                00000540    00001C08 =        7176. bytes (REL,CON,CODE)

      Value  Global                              Global Defined In Module
      -----  --------------------------------   ------------------------
     0C:   0000163D  A$board$903                        board
     0C:   00001640  A$board$904                        board
     0C:   00001642  A$board$907                        board
     0C:   00001642  C$board.c$96$2$2                   board
     0C:   00001644  A$board$908                        board
     0C:   00001647  A$board$909                        board
     0C:   00001649  A$board$912                        board
     0C:   00001649  C$board.c$97$2$2                   board
     0C:   0000164C  A$board$913                        board
     0C:   0000164F  A$board$916                        board
     0C:   0000164F  C$board.c$99$2$2                   board
     0C:   00001651  A$board$917                        board
     0C:   00001653  A$board$920                        board
     0C:   00001653  C$board.c$101$2$2                  board
     0C:   00001656  A$board$923                        board
     0C:   00001656  C$board.c$102$2$2                  board
     0C:   00001659  A$board$926                        board
     0C:   00001659  C$board.c$104$3$4                  board
     0C:   0000165C  A$board$930                        board
     0C:   0000165C  C$board.c$107$2$2                  board
     0C:   0000165F  A$board$931                        board
     0C:   00001661  A$board$932                        board
     0C:   00001663  A$board$933                        board
     0C:   00001665  A$board$934                        board
     0C:   00001666  A$board$935                        board
     0C:   00001668  A$board$936                        board
     0C:   00001669  A$board$937                        board
     0C:   0000166A  A$board$941                        board
     0C:   0000166A  C$board.c$109$2$1                  board
     0C:   0000166A  XFboard$boardDetectVbus$0$0        board
     0C:   0000166B  A$board$954                        board
     0C:   0000166B  C$board.c$111$2$1                  board
     0C:   0000166B  C$board.c$113$1$1                  board
     0C:   0000166B  G$boardStartBootloader$0$0         board
     0C:   0000166B  _boardStartBootloader              board
     0C:   0000166D  A$board$957                        board
     0C:   0000166D  C$board.c$115$1$1                  board
     0C:   00001670  A$board$960                        board
     0C:   00001670  C$board.c$117$1$1                  board
     0C:   00001673  A$board$961                        board
     0C:   00001676  A$board$964                        board
     0C:   00001676  C$board.c$123$1$1                  board
     0C:   00001679  A$board$965                        board
     0C:   0000167C  A$board$966                        board
     0C:   0000167F  A$board$969                        board
     0C:   0000167F  C$board.c$124$1$1                  board
     0C:   00001682  A$board$970                        board
     0C:   00001685  A$board$971                        board
     0C:   00001688  A$board$974                        board
     0C:   00001688  C$board.c$126$1$1                  board
     0C:   0000168B  A$board$975                        board
ASxxxx Linker V02.00 + NoICE + sdld,  page 162.
Hexadecimal  [32-Bits]

Area                                    Addr        Size        Decimal Bytes (Attributes)
--------------------------------        ----        ----        ------- ----- ------------
CSEG                                00000540    00001C08 =        7176. bytes (REL,CON,CODE)

      Value  Global                              Global Defined In Module
      -----  --------------------------------   ------------------------
     0C:   0000168E  A$board$978                        board
     0C:   0000168E  C$board.c$127$1$1                  board
     0C:   00001691  A$board$981                        board
     0C:   00001691  C$board.c$128$1$1                  board
     0C:   00001691  XG$boardStartBootloader$0$0        board
     0C:   00001692  A$board$994                        board
     0C:   00001692  C$board.c$130$1$1                  board
     0C:   00001692  C$board.c$132$1$1                  board
     0C:   00001692  G$boardStartBootloaderIfNeeded$0   board
     0C:   00001692  _boardStartBootloaderIfNeeded      board
     0C:   00001694  A$board$995                        board
     0C:   00001697  A$board$998                        board
     0C:   00001697  C$board.c$134$2$2                  board
     0C:   0000169A  A$board$999                        board
     0C:   0000169D  A$board$1002                       board
     0C:   0000169D  C$board.c$135$2$2                  board
     0C:   000016A0  A$board$1005                       board
     0C:   000016A0  C$board.c$137$3$3                  board
     0C:   000016A3  A$board$1009                       board
     0C:   000016A3  C$board.c$140$1$1                  board
     0C:   000016A3  XG$boardStartBootloaderIfNeeded$   board
     0C:   000016A4  A$board$1022                       board
     0C:   000016A4  C$board.c$142$1$1                  board
     0C:   000016A4  C$board.c$144$1$1                  board
     0C:   000016A4  G$usbPowerPresent$0$0              board
     0C:   000016A4  _usbPowerPresent                   board
     0C:   000016A7  A$board$1025                       board
     0C:   000016A7  C$board.c$145$1$1                  board
     0C:   000016A9  A$board$1028                       board
     0C:   000016A9  C$board.c$146$1$1                  board
     0C:   000016A9  XG$usbPowerPresent$0$0             board
     0C:   000016AA  A$board$1041                       board
     0C:   000016AA  C$board.c$148$1$1                  board
     0C:   000016AA  C$board.c$150$1$1                  board
     0C:   000016AA  G$vinPowerPresent$0$0              board
     0C:   000016AA  _vinPowerPresent                   board
     0C:   000016AC  A$board$1044                       board
     0C:   000016AC  C$board.c$151$1$1                  board
     0C:   000016AC  XG$vinPowerPresent$0$0             board
     0C:   000016AD  A$board$1057                       board
     0C:   000016AD  C$board.c$153$1$1                  board
     0C:   000016AD  C$board.c$155$1$1                  board
     0C:   000016AD  G$disableUsbPullup$0$0             board
     0C:   000016AD  _disableUsbPullup                  board
     0C:   000016AF  A$board$1058                       board
     0C:   000016B2  A$board$1059                       board
     0C:   000016B4  A$board$1062                       board
     0C:   000016B4  C$board.c$156$1$1                  board
     0C:   000016B4  XG$disableUsbPullup$0$0            board
     0C:   000016B5  A$board$1075                       board
     0C:   000016B5  C$board.c$158$1$1                  board
ASxxxx Linker V02.00 + NoICE + sdld,  page 163.
Hexadecimal  [32-Bits]

Area                                    Addr        Size        Decimal Bytes (Attributes)
--------------------------------        ----        ----        ------- ----- ------------
CSEG                                00000540    00001C08 =        7176. bytes (REL,CON,CODE)

      Value  Global                              Global Defined In Module
      -----  --------------------------------   ------------------------
     0C:   000016B5  C$board.c$160$1$1                  board
     0C:   000016B5  G$enableUsbPullup$0$0              board
     0C:   000016B5  _enableUsbPullup                   board
     0C:   000016B7  A$board$1078                       board
     0C:   000016B7  C$board.c$161$1$1                  board
     0C:   000016BA  A$board$1081                       board
     0C:   000016BA  C$board.c$162$1$1                  board
     0C:   000016BA  XG$enableUsbPullup$0$0             board
     0C:   000016BB  A$time$747                         time
     0C:   000016BB  C$time.c$13$0$0                    time
     0C:   000016BB  G$ISR_T4$0$0                       time
     0C:   000016BB  _ISR_T4                            time
     0C:   000016BD  A$time$748                         time
     0C:   000016BF  A$time$749                         time
     0C:   000016C1  A$time$750                         time
     0C:   000016C4  A$time$753                         time
     0C:   000016C4  C$time.c$15$1$1                    time
     0C:   000016C6  A$time$754                         time
     0C:   000016C7  A$time$755                         time
     0C:   000016C9  A$time$756                         time
     0C:   000016CA  A$time$757                         time
     0C:   000016CB  A$time$758                         time
     0C:   000016CC  A$time$759                         time
     0C:   000016CE  A$time$760                         time
     0C:   000016CF  A$time$761                         time
     0C:   000016D0  A$time$762                         time
     0C:   000016D1  A$time$763                         time
     0C:   000016D3  A$time$764                         time
     0C:   000016D4  A$time$765                         time
     0C:   000016D5  A$time$766                         time
     0C:   000016D6  A$time$767                         time
     0C:   000016D8  A$time$768                         time
     0C:   000016D9  A$time$769                         time
     0C:   000016DB  A$time$770                         time
     0C:   000016DD  A$time$771                         time
     0C:   000016DF  A$time$774                         time
     0C:   000016DF  C$time.c$17$1$1                    time
     0C:   000016DF  XG$ISR_T4$0$0                      time
     0C:   000016E0  A$time$791                         time
     0C:   000016E0  C$time.c$19$1$1                    time
     0C:   000016E0  C$time.c$21$1$1                    time
     0C:   000016E0  G$getMs$0$0                        time
     0C:   000016E0  _getMs                             time
     0C:   000016E2  A$time$792                         time
     0C:   000016E3  A$time$793                         time
     0C:   000016E4  A$time$794                         time
     0C:   000016E5  A$time$797                         time
     0C:   000016E5  C$time.c$23$1$1                    time
     0C:   000016E7  A$time$800                         time
     0C:   000016E7  C$time.c$24$1$1                    time
     0C:   000016E9  A$time$801                         time
ASxxxx Linker V02.00 + NoICE + sdld,  page 164.
Hexadecimal  [32-Bits]

Area                                    Addr        Size        Decimal Bytes (Attributes)
--------------------------------        ----        ----        ------- ----- ------------
CSEG                                00000540    00001C08 =        7176. bytes (REL,CON,CODE)

      Value  Global                              Global Defined In Module
      -----  --------------------------------   ------------------------
     0C:   000016EA  A$time$802                         time
     0C:   000016EB  A$time$803                         time
     0C:   000016EC  A$time$804                         time
     0C:   000016ED  A$time$805                         time
     0C:   000016EE  A$time$806                         time
     0C:   000016EF  A$time$807                         time
     0C:   000016F0  A$time$808                         time
     0C:   000016F1  A$time$809                         time
     0C:   000016F2  A$time$810                         time
     0C:   000016F3  A$time$811                         time
     0C:   000016F4  A$time$814                         time
     0C:   000016F4  C$time.c$25$1$1                    time
     0C:   000016F5  A$time$815                         time
     0C:   000016F7  A$time$816                         time
     0C:   000016F9  A$time$819                         time
     0C:   000016F9  C$time.c$26$1$1                    time
     0C:   000016FB  A$time$820                         time
     0C:   000016FD  A$time$821                         time
     0C:   000016FF  A$time$822                         time
     0C:   00001700  A$time$825                         time
     0C:   00001700  C$time.c$27$1$1                    time
     0C:   00001700  XG$getMs$0$0                       time
     0C:   00001701  A$time$838                         time
     0C:   00001701  C$time.c$29$1$1                    time
     0C:   00001701  C$time.c$31$1$1                    time
     0C:   00001701  G$timeInit$0$0                     time
     0C:   00001701  _timeInit                          time
     0C:   00001704  A$time$841                         time
     0C:   00001704  C$time.c$32$1$1                    time
     0C:   00001706  A$time$844                         time
     0C:   00001706  C$time.c$38$1$1                    time
     0C:   00001709  A$time$847                         time
     0C:   00001709  C$time.c$40$1$1                    time
     0C:   0000170B  A$time$850                         time
     0C:   0000170B  C$time.c$41$1$1                    time
     0C:   0000170B  XG$timeInit$0$0                    time
     0C:   0000170C  A$time$861                         time
     0C:   0000170C  C$time.c$43$1$1                    time
     0C:   0000170C  G$delayMs$0$0                      time
     0C:   0000170C  _delayMs                           time
     0C:   0000170E  A$time$862                         time
     0C:   00001710  A$time$866                         time
     0C:   00001710  C$time.c$49$1$1                    time
     0C:   00001712  A$time$867                         time
     0C:   00001714  A$time$868                         time
     0C:   00001715  A$time$869                         time
     0C:   00001718  A$time$870                         time
     0C:   00001719  A$time$872                         time
     0C:   0000171A  A$time$873                         time
     0C:   0000171B  A$time$874                         time
     0C:   0000171D  A$time$877                         time
ASxxxx Linker V02.00 + NoICE + sdld,  page 165.
Hexadecimal  [32-Bits]

Area                                    Addr        Size        Decimal Bytes (Attributes)
--------------------------------        ----        ----        ------- ----- ------------
CSEG                                00000540    00001C08 =        7176. bytes (REL,CON,CODE)

      Value  Global                              Global Defined In Module
      -----  --------------------------------   ------------------------
     0C:   0000171D  C$time.c$51$2$2                    time
     0C:   00001720  A$time$878                         time
     0C:   00001722  A$time$879                         time
     0C:   00001724  A$time$880                         time
     0C:   00001727  A$time$883                         time
     0C:   00001727  C$time.c$52$2$2                    time
     0C:   0000172A  A$time$884                         time
     0C:   0000172D  A$time$887                         time
     0C:   0000172D  C$time.c$53$2$2                    time
     0C:   00001730  A$time$888                         time
     0C:   00001733  A$time$891                         time
     0C:   00001733  C$time.c$54$2$2                    time
     0C:   00001736  A$time$892                         time
     0C:   00001739  A$time$893                         time
     0C:   0000173B  A$time$894                         time
     0C:   0000173D  A$time$895                         time
     0C:   0000173F  A$time$899                         time
     0C:   0000173F  C$time.c$56$1$1                    time
     0C:   0000173F  XG$delayMs$0$0                     time
     0C:   00001740  A$dma$745                          dma
     0C:   00001740  C$dma.c$7$0$0                      dma
     0C:   00001740  C$dma.c$9$1$1                      dma
     0C:   00001740  G$dmaInit$0$0                      dma
     0C:   00001740  _dmaInit                           dma
     0C:   00001743  A$dma$746                          dma
     0C:   00001746  A$dma$749                          dma
     0C:   00001746  C$dma.c$10$1$1                     dma
     0C:   00001746  XG$dmaInit$0$0                     dma
     0C:   000017B7  _vsprintf                          sprintf
     0C:   00001809  _sprintf                           sprintf
     0C:   0000185C  A$radio_registers$744              radio_registers
     0C:   0000185C  C$radio_registers.c$4$0$0          radio_registers
     0C:   0000185C  C$radio_registers.c$7$1$1          radio_registers
     0C:   0000185C  G$radioRegistersInit$0$0           radio_registers
     0C:   0000185C  _radioRegistersInit                radio_registers
     0C:   0000185F  A$radio_registers$745              radio_registers
     0C:   00001861  A$radio_registers$746              radio_registers
     0C:   00001862  A$radio_registers$749              radio_registers
     0C:   00001862  C$radio_registers.c$12$1$1         radio_registers
     0C:   00001865  A$radio_registers$750              radio_registers
     0C:   00001867  A$radio_registers$751              radio_registers
     0C:   00001868  A$radio_registers$754              radio_registers
     0C:   00001868  C$radio_registers.c$13$1$1         radio_registers
     0C:   0000186B  A$radio_registers$755              radio_registers
     0C:   0000186D  A$radio_registers$756              radio_registers
     0C:   0000186E  A$radio_registers$759              radio_registers
     0C:   0000186E  C$radio_registers.c$14$1$1         radio_registers
     0C:   00001871  A$radio_registers$760              radio_registers
     0C:   00001872  A$radio_registers$761              radio_registers
     0C:   00001873  A$radio_registers$764              radio_registers
     0C:   00001873  C$radio_registers.c$27$1$1         radio_registers
ASxxxx Linker V02.00 + NoICE + sdld,  page 166.
Hexadecimal  [32-Bits]

Area                                    Addr        Size        Decimal Bytes (Attributes)
--------------------------------        ----        ----        ------- ----- ------------
CSEG                                00000540    00001C08 =        7176. bytes (REL,CON,CODE)

      Value  Global                              Global Defined In Module
      -----  --------------------------------   ------------------------
     0C:   00001876  A$radio_registers$765              radio_registers
     0C:   00001878  A$radio_registers$766              radio_registers
     0C:   00001879  A$radio_registers$769              radio_registers
     0C:   00001879  C$radio_registers.c$28$1$1         radio_registers
     0C:   0000187C  A$radio_registers$770              radio_registers
     0C:   0000187E  A$radio_registers$771              radio_registers
     0C:   0000187F  A$radio_registers$774              radio_registers
     0C:   0000187F  C$radio_registers.c$32$1$1         radio_registers
     0C:   00001882  A$radio_registers$775              radio_registers
     0C:   00001884  A$radio_registers$776              radio_registers
     0C:   00001885  A$radio_registers$779              radio_registers
     0C:   00001885  C$radio_registers.c$33$1$1         radio_registers
     0C:   00001888  A$radio_registers$780              radio_registers
     0C:   00001889  A$radio_registers$781              radio_registers
     0C:   0000188A  A$radio_registers$784              radio_registers
     0C:   0000188A  C$radio_registers.c$39$1$1         radio_registers
     0C:   0000188D  A$radio_registers$785              radio_registers
     0C:   0000188F  A$radio_registers$786              radio_registers
     0C:   00001890  A$radio_registers$787              radio_registers
     0C:   00001893  A$radio_registers$788              radio_registers
     0C:   00001895  A$radio_registers$789              radio_registers
     0C:   00001896  A$radio_registers$792              radio_registers
     0C:   00001896  C$radio_registers.c$46$1$1         radio_registers
     0C:   00001899  A$radio_registers$793              radio_registers
     0C:   0000189B  A$radio_registers$794              radio_registers
     0C:   0000189C  A$radio_registers$797              radio_registers
     0C:   0000189C  C$radio_registers.c$51$1$1         radio_registers
     0C:   0000189F  A$radio_registers$798              radio_registers
     0C:   000018A1  A$radio_registers$799              radio_registers
     0C:   000018A2  A$radio_registers$802              radio_registers
     0C:   000018A2  C$radio_registers.c$52$1$1         radio_registers
     0C:   000018A5  A$radio_registers$803              radio_registers
     0C:   000018A7  A$radio_registers$804              radio_registers
     0C:   000018A8  A$radio_registers$807              radio_registers
     0C:   000018A8  C$radio_registers.c$56$1$1         radio_registers
     0C:   000018AB  A$radio_registers$808              radio_registers
     0C:   000018AD  A$radio_registers$809              radio_registers
     0C:   000018AE  A$radio_registers$812              radio_registers
     0C:   000018AE  C$radio_registers.c$57$1$1         radio_registers
     0C:   000018B1  A$radio_registers$813              radio_registers
     0C:   000018B3  A$radio_registers$814              radio_registers
     0C:   000018B4  A$radio_registers$817              radio_registers
     0C:   000018B4  C$radio_registers.c$63$1$1         radio_registers
     0C:   000018B7  A$radio_registers$818              radio_registers
     0C:   000018B9  A$radio_registers$819              radio_registers
     0C:   000018BA  A$radio_registers$822              radio_registers
     0C:   000018BA  C$radio_registers.c$64$1$1         radio_registers
     0C:   000018BD  A$radio_registers$823              radio_registers
     0C:   000018BE  A$radio_registers$824              radio_registers
     0C:   000018BF  A$radio_registers$827              radio_registers
     0C:   000018BF  C$radio_registers.c$65$1$1         radio_registers
ASxxxx Linker V02.00 + NoICE + sdld,  page 167.
Hexadecimal  [32-Bits]

Area                                    Addr        Size        Decimal Bytes (Attributes)
--------------------------------        ----        ----        ------- ----- ------------
CSEG                                00000540    00001C08 =        7176. bytes (REL,CON,CODE)

      Value  Global                              Global Defined In Module
      -----  --------------------------------   ------------------------
     0C:   000018C2  A$radio_registers$828              radio_registers
     0C:   000018C4  A$radio_registers$829              radio_registers
     0C:   000018C5  A$radio_registers$832              radio_registers
     0C:   000018C5  C$radio_registers.c$68$1$1         radio_registers
     0C:   000018C8  A$radio_registers$833              radio_registers
     0C:   000018CA  A$radio_registers$834              radio_registers
     0C:   000018CB  A$radio_registers$837              radio_registers
     0C:   000018CB  C$radio_registers.c$69$1$1         radio_registers
     0C:   000018CE  A$radio_registers$838              radio_registers
     0C:   000018D0  A$radio_registers$839              radio_registers
     0C:   000018D1  A$radio_registers$842              radio_registers
     0C:   000018D1  C$radio_registers.c$70$1$1         radio_registers
     0C:   000018D4  A$radio_registers$843              radio_registers
     0C:   000018D5  A$radio_registers$844              radio_registers
     0C:   000018D6  A$radio_registers$847              radio_registers
     0C:   000018D6  C$radio_registers.c$71$1$1         radio_registers
     0C:   000018D9  A$radio_registers$848              radio_registers
     0C:   000018DB  A$radio_registers$849              radio_registers
     0C:   000018DC  A$radio_registers$852              radio_registers
     0C:   000018DC  C$radio_registers.c$75$1$1         radio_registers
     0C:   000018DF  A$radio_registers$853              radio_registers
     0C:   000018E1  A$radio_registers$854              radio_registers
     0C:   000018E2  A$radio_registers$857              radio_registers
     0C:   000018E2  C$radio_registers.c$76$1$1         radio_registers
     0C:   000018E5  A$radio_registers$858              radio_registers
     0C:   000018E7  A$radio_registers$859              radio_registers
     0C:   000018E8  A$radio_registers$862              radio_registers
     0C:   000018E8  C$radio_registers.c$77$1$1         radio_registers
     0C:   000018EB  A$radio_registers$863              radio_registers
     0C:   000018ED  A$radio_registers$864              radio_registers
     0C:   000018EE  A$radio_registers$867              radio_registers
     0C:   000018EE  C$radio_registers.c$80$1$1         radio_registers
     0C:   000018F1  A$radio_registers$868              radio_registers
     0C:   000018F3  A$radio_registers$869              radio_registers
     0C:   000018F4  A$radio_registers$872              radio_registers
     0C:   000018F4  C$radio_registers.c$81$1$1         radio_registers
     0C:   000018F7  A$radio_registers$873              radio_registers
     0C:   000018F9  A$radio_registers$874              radio_registers
     0C:   000018FA  A$radio_registers$877              radio_registers
     0C:   000018FA  C$radio_registers.c$82$1$1         radio_registers
     0C:   000018FA  XG$radioRegistersInit$0$0          radio_registers
     0C:   000018FB  A$radio_registers$890              radio_registers
     0C:   000018FB  C$radio_registers.c$84$1$1         radio_registers
     0C:   000018FB  C$radio_registers.c$86$1$1         radio_registers
     0C:   000018FB  G$radioCrcPassed$0$0               radio_registers
     0C:   000018FB  _radioCrcPassed                    radio_registers
     0C:   000018FE  A$radio_registers$891              radio_registers
     0C:   000018FF  A$radio_registers$892              radio_registers
     0C:   00001900  A$radio_registers$893              radio_registers
     0C:   00001902  A$radio_registers$894              radio_registers
     0C:   00001904  A$radio_registers$897              radio_registers
ASxxxx Linker V02.00 + NoICE + sdld,  page 168.
Hexadecimal  [32-Bits]

Area                                    Addr        Size        Decimal Bytes (Attributes)
--------------------------------        ----        ----        ------- ----- ------------
CSEG                                00000540    00001C08 =        7176. bytes (REL,CON,CODE)

      Value  Global                              Global Defined In Module
      -----  --------------------------------   ------------------------
     0C:   00001904  C$radio_registers.c$87$1$1         radio_registers
     0C:   00001904  XG$radioCrcPassed$0$0              radio_registers
     0C:   00001905  A$radio_registers$910              radio_registers
     0C:   00001905  C$radio_registers.c$89$1$1         radio_registers
     0C:   00001905  C$radio_registers.c$91$1$1         radio_registers
     0C:   00001905  G$radioLqi$0$0                     radio_registers
     0C:   00001905  _radioLqi                          radio_registers
     0C:   00001908  A$radio_registers$911              radio_registers
     0C:   00001909  A$radio_registers$912              radio_registers
     0C:   0000190A  A$radio_registers$913              radio_registers
     0C:   0000190C  A$radio_registers$914              radio_registers
     0C:   0000190D  A$radio_registers$915              radio_registers
     0C:   0000190F  A$radio_registers$918              radio_registers
     0C:   0000190F  C$radio_registers.c$92$1$1         radio_registers
     0C:   0000190F  XG$radioLqi$0$0                    radio_registers
     0C:   00001910  A$radio_registers$931              radio_registers
     0C:   00001910  C$radio_registers.c$94$1$1         radio_registers
     0C:   00001910  C$radio_registers.c$96$1$1         radio_registers
     0C:   00001910  G$radioRssi$0$0                    radio_registers
     0C:   00001910  _radioRssi                         radio_registers
     0C:   00001913  A$radio_registers$932              radio_registers
     0C:   00001914  A$radio_registers$933              radio_registers
     0C:   00001915  A$radio_registers$934              radio_registers
     0C:   00001917  A$radio_registers$935              radio_registers
     0C:   0000191A  A$radio_registers$936              radio_registers
     0C:   0000191B  A$radio_registers$937              radio_registers
     0C:   0000191E  A$radio_registers$938              radio_registers
     0C:   00001920  A$radio_registers$939              radio_registers
     0C:   00001921  A$radio_registers$940              radio_registers
     0C:   00001922  A$radio_registers$942              radio_registers
     0C:   00001923  A$radio_registers$943              radio_registers
     0C:   00001926  A$radio_registers$944              radio_registers
     0C:   00001927  A$radio_registers$945              radio_registers
     0C:   00001928  A$radio_registers$947              radio_registers
     0C:   0000192A  A$radio_registers$948              radio_registers
     0C:   0000192C  A$radio_registers$951              radio_registers
     0C:   0000192C  C$radio_registers.c$97$1$1         radio_registers
     0C:   0000192C  XG$radioRssi$0$0                   radio_registers
     0C:   0000192D  A$green_led$761                    green_led
     0C:   0000192D  C$green_led.c$13$0$0               green_led
     0C:   0000192D  C$green_led.c$15$1$1               green_led
     0C:   0000192D  C$green_led.c$18$2$2               green_led
     0C:   0000192D  G$usbShowStatusWithGreenLed$0$0    green_led
     0C:   0000192D  _usbShowStatusWithGreenLed         green_led
     0C:   00001930  A$green_led$762                    green_led
     0C:   00001932  A$green_led$766                    green_led
     0C:   00001932  C$green_led.c$21$2$2               green_led
     0C:   00001935  A$green_led$767                    green_led
     0C:   00001936  A$green_led$768                    green_led
     0C:   00001937  A$green_led$769                    green_led
     0C:   00001939  A$green_led$770                    green_led
ASxxxx Linker V02.00 + NoICE + sdld,  page 169.
Hexadecimal  [32-Bits]

Area                                    Addr        Size        Decimal Bytes (Attributes)
--------------------------------        ----        ----        ------- ----- ------------
CSEG                                00000540    00001C08 =        7176. bytes (REL,CON,CODE)

      Value  Global                              Global Defined In Module
      -----  --------------------------------   ------------------------
     0C:   0000193A  A$green_led$773                    green_led
     0C:   0000193A  C$green_led.c$25$2$2               green_led
     0C:   0000193D  A$green_led$776                    green_led
     0C:   0000193D  C$green_led.c$27$3$3               green_led
     0C:   0000193F  A$green_led$779                    green_led
     0C:   0000193F  C$green_led.c$28$3$3               green_led
     0C:   00001942  A$green_led$780                    green_led
     0C:   00001943  A$green_led$781                    green_led
     0C:   00001944  A$green_led$782                    green_led
     0C:   00001946  A$green_led$783                    green_led
     0C:   00001947  A$green_led$787                    green_led
     0C:   00001947  C$green_led.c$32$1$1               green_led
     0C:   0000194A  A$green_led$788                    green_led
     0C:   0000194C  A$green_led$789                    green_led
     0C:   0000194F  A$green_led$790                    green_led
     0C:   00001950  A$green_led$791                    green_led
     0C:   00001951  A$green_led$792                    green_led
     0C:   00001953  A$green_led$796                    green_led
     0C:   00001953  C$green_led.c$34$3$5               green_led
     0C:   00001955  A$green_led$797                    green_led
     0C:   00001958  A$green_led$798                    green_led
     0C:   0000195A  A$green_led$799                    green_led
     0C:   0000195C  A$green_led$803                    green_led
     0C:   0000195C  C$green_led.c$37$1$1               green_led
     0C:   0000195F  A$green_led$806                    green_led
     0C:   0000195F  C$green_led.c$39$2$6               green_led
     0C:   00001962  A$green_led$809                    green_led
     0C:   00001962  C$green_led.c$41$4$8               green_led
     0C:   00001965  A$green_led$810                    green_led
     0C:   00001966  A$green_led$811                    green_led
     0C:   00001967  A$green_led$812                    green_led
     0C:   00001969  A$green_led$813                    green_led
     0C:   0000196B  A$green_led$814                    green_led
     0C:   0000196C  A$green_led$815                    green_led
     0C:   0000196D  A$green_led$816                    green_led
     0C:   0000196F  A$green_led$817                    green_led
     0C:   00001970  A$green_led$818                    green_led
     0C:   00001971  A$green_led$819                    green_led
     0C:   00001972  A$green_led$820                    green_led
     0C:   00001973  A$green_led$821                    green_led
     0C:   00001974  A$green_led$822                    green_led
     0C:   00001975  A$green_led$823                    green_led
     0C:   00001976  A$green_led$824                    green_led
     0C:   00001977  A$green_led$825                    green_led
     0C:   0000197A  A$green_led$826                    green_led
     0C:   0000197D  A$green_led$827                    green_led
     0C:   0000197F  A$green_led$829                    green_led
     0C:   00001981  A$green_led$830                    green_led
     0C:   00001984  A$green_led$831                    green_led
     0C:   00001986  A$green_led$835                    green_led
     0C:   00001986  C$green_led.c$43$3$7               green_led
ASxxxx Linker V02.00 + NoICE + sdld,  page 170.
Hexadecimal  [32-Bits]

Area                                    Addr        Size        Decimal Bytes (Attributes)
--------------------------------        ----        ----        ------- ----- ------------
CSEG                                00000540    00001C08 =        7176. bytes (REL,CON,CODE)

      Value  Global                              Global Defined In Module
      -----  --------------------------------   ------------------------
     0C:   00001989  A$green_led$836                    green_led
     0C:   0000198A  A$green_led$837                    green_led
     0C:   0000198B  A$green_led$838                    green_led
     0C:   0000198D  A$green_led$839                    green_led
     0C:   0000198E  A$green_led$840                    green_led
     0C:   0000198F  A$green_led$841                    green_led
     0C:   00001990  A$green_led$842                    green_led
     0C:   00001991  A$green_led$843                    green_led
     0C:   00001992  A$green_led$844                    green_led
     0C:   00001994  A$green_led$845                    green_led
     0C:   00001996  A$green_led$848                    green_led
     0C:   00001996  C$green_led.c$45$4$9               green_led
     0C:   00001998  A$green_led$849                    green_led
     0C:   0000199A  A$green_led$853                    green_led
     0C:   0000199A  C$green_led.c$50$4$11              green_led
     0C:   0000199D  A$green_led$854                    green_led
     0C:   0000199F  A$green_led$858                    green_led
     0C:   0000199F  C$green_led.c$57$3$13              green_led
     0C:   000019A2  A$green_led$859                    green_led
     0C:   000019A4  A$green_led$860                    green_led
     0C:   000019A6  A$green_led$861                    green_led
     0C:   000019A7  A$green_led$862                    green_led
     0C:   000019A8  A$green_led$863                    green_led
     0C:   000019A9  A$green_led$864                    green_led
     0C:   000019AB  A$green_led$865                    green_led
     0C:   000019AC  A$green_led$866                    green_led
     0C:   000019AE  A$green_led$867                    green_led
     0C:   000019B1  A$green_led$868                    green_led
     0C:   000019B3  A$green_led$870                    green_led
     0C:   000019B5  A$green_led$871                    green_led
     0C:   000019B8  A$green_led$872                    green_led
     0C:   000019BA  A$green_led$876                    green_led
     0C:   000019BA  C$green_led.c$59$1$1               green_led
     0C:   000019BA  XG$usbShowStatusWithGreenLed$0$0   green_led
     0C:   00001A7D  __print_format                     printf_large
     0C:   000020CC  _strlen                            _strlen
     0C:   000020E4  __gptrget                          _gptrget
     0C:   00002100  A$random_from_sernum$742           random_from_sernum
     0C:   00002100  C$random_from_sernum.c$17$1$1      random_from_sernum
     0C:   00002100  C$random_from_sernum.c$9$0$0       random_from_sernum
     0C:   00002100  G$randomSeedFromSerialNumber$0$0   random_from_sernum
     0C:   00002100  _randomSeedFromSerialNumber        random_from_sernum
     0C:   00002103  A$random_from_sernum$743           random_from_sernum
     0C:   00002104  A$random_from_sernum$744           random_from_sernum
     0C:   00002105  A$random_from_sernum$745           random_from_sernum
     0C:   00002106  A$random_from_sernum$746           random_from_sernum
     0C:   00002109  A$random_from_sernum$747           random_from_sernum
     0C:   0000210A  A$random_from_sernum$748           random_from_sernum
     0C:   0000210B  A$random_from_sernum$749           random_from_sernum
     0C:   0000210D  A$random_from_sernum$750           random_from_sernum
     0C:   0000210E  A$random_from_sernum$751           random_from_sernum
ASxxxx Linker V02.00 + NoICE + sdld,  page 171.
Hexadecimal  [32-Bits]

Area                                    Addr        Size        Decimal Bytes (Attributes)
--------------------------------        ----        ----        ------- ----- ------------
CSEG                                00000540    00001C08 =        7176. bytes (REL,CON,CODE)

      Value  Global                              Global Defined In Module
      -----  --------------------------------   ------------------------
     0C:   00002110  A$random_from_sernum$752           random_from_sernum
     0C:   00002113  A$random_from_sernum$755           random_from_sernum
     0C:   00002113  C$random_from_sernum.c$18$1$1      random_from_sernum
     0C:   00002113  XG$randomSeedFromSerialNumber$0$   random_from_sernum
     0C:   00002114  __sdcc_external_startup            _startup
     0C:   00002118  __gptrput                          _gptrput
     0C:   00002140  _delayMicroseconds                 delay
ASxxxx Linker V02.00 + NoICE + sdld,  page 172.
Hexadecimal  [32-Bits]

Area                                    Addr        Size        Decimal Bytes (Attributes)
--------------------------------        ----        ----        ------- ----- ------------
CONST                               00002148    000000E4 =         228. bytes (REL,CON,CODE)

      Value  Global                              Global Defined In Module
      -----  --------------------------------   ------------------------
     0C:   00002148  Fradio_send_test_with_usb_com$_s   radio_send_test_with_usb_com
     0C:   0000215A  Fradio_send_test_with_usb_com$_s   radio_send_test_with_usb_com
     0C:   00002169  Fradio_send_test_with_usb_com$_s   radio_send_test_with_usb_com
     0C:   00002189  G$param_radio_channel$0$0          radio_queue
     0C:   00002189  _param_radio_channel               radio_queue
     0C:   0000218D  G$usbDeviceDescriptor$0$0          usb_cdc_acm
     0C:   0000218D  _usbDeviceDescriptor               usb_cdc_acm
     0C:   0000219F  G$usbConfigurationDescriptor$0$0   usb_cdc_acm
     0C:   0000219F  _usbConfigurationDescriptor        usb_cdc_acm
     0C:   000021E2  G$usbStringDescriptorCount$0$0     usb_cdc_acm
     0C:   000021E2  _usbStringDescriptorCount          usb_cdc_acm
     0C:   000021E3  Fusb_cdc_acm$languages$0$0         usb_cdc_acm
     0C:   000021E7  Fusb_cdc_acm$manufacturer$0$0      usb_cdc_acm
     0C:   0000220D  Fusb_cdc_acm$product$0$0           usb_cdc_acm
     0C:   00002219  G$usbStringDescriptors$0$0         usb_cdc_acm
     0C:   00002219  _usbStringDescriptors              usb_cdc_acm

ASxxxx Linker V02.00 + NoICE + sdld,  page 173.
Hexadecimal  [32-Bits]

Area                                    Addr        Size        Decimal Bytes (Attributes)
--------------------------------        ----        ----        ------- ----- ------------
XINIT                               0000222C    00000009 =           9. bytes (REL,CON,CODE)

      Value  Global                              Global Defined In Module
      -----  --------------------------------   ------------------------
     0C:   0000222C  Fusb_cdc_acm$__xinit_usbComLineC   usb_cdc_acm
     0C:   00002233  Fusb$__xinit_usbDeviceState$0$0    usb
     0C:   00002234  Fusb$__xinit_controlTransferStat   usb
ASxxxx Linker V02.00 + NoICE + sdld,  page 174.

Files Linked                              [ module(s) ]

libraries/xpage/xpage.rel                 [  ]
apps/radio_send_test_with_usb_com/radio_send_test_with_usb_com.rel
                                          [  ]


Libraries Linked                          [ object file ]

libraries/lib/radio_mac.lib               [ radio_mac ]
libraries/lib/radio_queue.lib             [ radio_queue ]
C:\Program Files\SDCC\bin\..\lib\medium/mcs51.lib
                                          [ crtclear.rel ]
libraries/lib/random.lib                  [ random ]
C:\Program Files\SDCC\bin\..\lib\medium/mcs51.lib
                                          [ crtxinit.rel ]
libraries/lib/usb_cdc_acm.lib             [ usb_cdc_acm ]
libraries/lib/usb.lib                     [ usb ]
libraries/lib/wixel.lib                   [ board ]
libraries/lib/wixel.lib                   [ fixed ]
libraries/lib/wixel.lib                   [ time ]
C:\Program Files\SDCC\bin\..\lib\medium/mcs51.lib
                                          [ crtxclear.rel ]
libraries/lib/dma.lib                     [ dma ]
C:\Program Files\SDCC\bin\..\lib\medium/libsdcc.lib
                                          [ sprintf.rel ]
libraries/lib/radio_registers.lib         [ radio_registers ]
C:\Program Files\SDCC\bin\..\lib\medium/mcs51.lib
                                          [ crtcall.rel ]
libraries/lib/usb.lib                     [ green_led ]
C:\Program Files\SDCC\bin\..\lib\medium/libsdcc.lib
                                          [ _bp.rel ]
C:\Program Files\SDCC\bin\..\lib\medium/libsdcc.lib
                                          [ printf_large.rel ]
C:\Program Files\SDCC\bin\..\lib\medium/libsdcc.lib
                                          [ _strlen.rel ]
C:\Program Files\SDCC\bin\..\lib\medium/mcs51.lib
                                          [ crtstart.rel ]
C:\Program Files\SDCC\bin\..\lib\medium/libsdcc.lib
                                          [ _gptrget.rel ]
libraries/lib/random.lib                  [ random_from_sernum ]
C:\Program Files\SDCC\bin\..\lib\medium/libsdcc.lib
                                          [ _startup.rel ]
C:\Program Files\SDCC\bin\..\lib\medium/libsdcc.lib
                                          [ _gptrput.rel ]
libraries/lib/wixel.lib                   [ delay ]

ASxxxx Linker V02.00 + NoICE + sdld,  page 175.

User Base Address Definitions

HOME = 0x0400
XSEG = 0xf000
PSEG = 0xf000
ISEG = 0x0000
BSEG = 0x0000

